ARM GAS  /cygdrive/d/DOCUME~1/rshilkr/LOCALS~1/Temp/ccuamTZe.s 			page 1


   1              		.file	"framework.c"
   8 0000 BD000000 		.text
   8      02002200 
   8      00000201 
   8      FB0E0D00 
   8      01010101 
   9              	.Ltext0:
  10              		.align	2
  11              		.global	exceptionHandlerInit
  12              		.type	exceptionHandlerInit, %function
  13              	exceptionHandlerInit:
  14              	.LFB8:
  15              		.file 1 "framework.c"
   1:framework.c   **** /******************************************************************************
   2:framework.c   ****  *
   3:framework.c   ****  * Copyright:
   4:framework.c   ****  *    (C) 2000 - 2005 Embedded Artists AB
   5:framework.c   ****  *
   6:framework.c   ****  * Description:
   7:framework.c   ****  *    Framework for ARM7 processor
   8:framework.c   ****  *
   9:framework.c   ****  *****************************************************************************/
  10:framework.c   **** 
  11:framework.c   **** /******************************************************************************
  12:framework.c   ****  * Includes
  13:framework.c   ****  *****************************************************************************/
  14:framework.c   **** #include "lpc2xxx.h"                            /* LPC2xxx definitions */
  15:framework.c   **** #include "config.h"
  16:framework.c   **** #include "framework.h"
  17:framework.c   **** #include "consol.h"
  18:framework.c   **** 
  19:framework.c   **** /******************************************************************************
  20:framework.c   ****  * Defines, macros, and typedefs
  21:framework.c   ****  *****************************************************************************/
  22:framework.c   **** 
  23:framework.c   **** 
  24:framework.c   **** /******************************************************************************
  25:framework.c   ****  * External variables
  26:framework.c   ****  *****************************************************************************/
  27:framework.c   **** extern char end asm ("end");  //the symbol "end" is defined by the linker script
  28:framework.c   **** 
  29:framework.c   **** 
  30:framework.c   **** /******************************************************************************
  31:framework.c   ****  * Public variables
  32:framework.c   ****  *****************************************************************************/
  33:framework.c   **** unsigned char *pHeapStart;
  34:framework.c   **** unsigned char *pHeapEnd;
  35:framework.c   **** 
  36:framework.c   **** 
  37:framework.c   **** /******************************************************************************
  38:framework.c   ****  * External functions
ARM GAS  /cygdrive/d/DOCUME~1/rshilkr/LOCALS~1/Temp/ccuamTZe.s 			page 2


  39:framework.c   ****  *****************************************************************************/
  40:framework.c   **** 
  41:framework.c   **** 
  42:framework.c   **** /******************************************************************************
  43:framework.c   ****  * Public functions
  44:framework.c   ****  *****************************************************************************/
  45:framework.c   **** void lowLevelInit(void);
  46:framework.c   **** void eaInit(void);
  47:framework.c   **** void exceptionHandlerInit(void);
  48:framework.c   **** 
  49:framework.c   **** /******************************************************************************
  50:framework.c   ****  * Implementation of local functions
  51:framework.c   ****  *****************************************************************************/
  52:framework.c   **** 
  53:framework.c   **** /*****************************************************************************
  54:framework.c   ****  *
  55:framework.c   ****  * Description:
  56:framework.c   ****  *    Default exception handler for undefined instruction.
  57:framework.c   ****  *    Prints information and halt. Observe that code execture in exception
  58:framework.c   ****  *    mode (as opposed to supervisor mode, which is the normal execution mode).
  59:framework.c   ****  *
  60:framework.c   ****  ****************************************************************************/
  61:framework.c   **** static void
  62:framework.c   **** exceptionHandlerUndef(void)
  63:framework.c   **** {
  64:framework.c   ****   register unsigned int programCounter asm ("lr");
  65:framework.c   ****   unsigned int          value = programCounter - (unsigned int)0x04;
  66:framework.c   **** 
  67:framework.c   ****   consolSendString("Undefined instruction exception !!!\nAddress: 0x");
  68:framework.c   ****   consolSendNumber(16, 8, 0, '0', value); 
  69:framework.c   ****   while(1)
  70:framework.c   ****     ;
  71:framework.c   **** }
  72:framework.c   **** 
  73:framework.c   **** /*****************************************************************************
  74:framework.c   ****  *
  75:framework.c   ****  * Description:
  76:framework.c   ****  *    Default exception handler for software interrupt.
  77:framework.c   ****  *    Prints information and halt. Observe that code execture in exception
  78:framework.c   ****  *    mode (as opposed to supervisor mode, which is the normal execution mode).
  79:framework.c   ****  *
  80:framework.c   ****  ****************************************************************************/
  81:framework.c   **** static void
  82:framework.c   **** exceptionHandlerSwi(void)
  83:framework.c   **** {
  84:framework.c   ****   register unsigned int programCounter asm ("lr");
  85:framework.c   ****   unsigned int          value = programCounter - (unsigned int)0x04;
  86:framework.c   **** 
  87:framework.c   ****   consolSendString("SWI exception !!!\nAddress: 0x");
  88:framework.c   ****   consolSendNumber(16, 8, 0, '0', value); 
  89:framework.c   ****   while(1)
  90:framework.c   ****     ;
  91:framework.c   **** }
  92:framework.c   **** 
  93:framework.c   **** /*****************************************************************************
  94:framework.c   ****  *
  95:framework.c   ****  * Description:
ARM GAS  /cygdrive/d/DOCUME~1/rshilkr/LOCALS~1/Temp/ccuamTZe.s 			page 3


  96:framework.c   ****  *    Default exception handler for invalid program fetch.
  97:framework.c   ****  *    Prints information and halt. Observe that code execture in exception
  98:framework.c   ****  *    mode (as opposed to supervisor mode, which is the normal execution mode).
  99:framework.c   ****  *
 100:framework.c   ****  ****************************************************************************/
 101:framework.c   **** static void
 102:framework.c   **** exceptionHandlerPabort()
 103:framework.c   **** {
 104:framework.c   ****   register unsigned int programCounter asm ("lr");
 105:framework.c   ****   unsigned int          value = programCounter - (unsigned int)0x04;
 106:framework.c   **** 
 107:framework.c   ****   consolSendString("Pabort exception !!!\nAddress: 0x");
 108:framework.c   ****   consolSendNumber(16, 8, 0, '0', value); 
 109:framework.c   ****   while(1)
 110:framework.c   ****     ;
 111:framework.c   **** }
 112:framework.c   **** 
 113:framework.c   **** /*****************************************************************************
 114:framework.c   ****  *
 115:framework.c   ****  * Description:
 116:framework.c   ****  *    Default exception handler for invalid data access.
 117:framework.c   ****  *    Prints information and halt. Observe that code execture in exception
 118:framework.c   ****  *    mode (as opposed to supervisor mode, which is the normal execution mode).
 119:framework.c   ****  *
 120:framework.c   ****  ****************************************************************************/
 121:framework.c   **** static void
 122:framework.c   **** exceptionHandlerDabort(void)
 123:framework.c   **** {
 124:framework.c   ****   register unsigned int programCounter asm ("lr");
 125:framework.c   ****   unsigned int          value = programCounter - (unsigned int)0x08;
 126:framework.c   **** 
 127:framework.c   ****   consolSendString("Dabort exception !!!\nAddress: 0x");
 128:framework.c   ****   consolSendNumber(16, 8, 0, '0', value); 
 129:framework.c   ****   while(1)
 130:framework.c   ****     ;
 131:framework.c   **** }
 132:framework.c   **** 
 133:framework.c   **** /*****************************************************************************
 134:framework.c   ****  *
 135:framework.c   ****  * Description:
 136:framework.c   ****  *    Default exception handler for fast interrupts.
 137:framework.c   ****  *    Prints information and halt. Observe that code execture in exception
 138:framework.c   ****  *    mode (as opposed to supervisor mode, which is the normal execution mode).
 139:framework.c   ****  *
 140:framework.c   ****  ****************************************************************************/
 141:framework.c   **** static void
 142:framework.c   **** exceptionHandlerFiq(void)
 143:framework.c   **** {
 144:framework.c   ****   register unsigned int programCounter asm ("lr");
 145:framework.c   ****   unsigned int          value = programCounter - (unsigned int)0x04;
 146:framework.c   **** 
 147:framework.c   ****   consolSendString("FIQ exception !!!\nAddress: 0x");
 148:framework.c   ****   consolSendNumber(16, 8, 0, '0', value); 
 149:framework.c   ****   while(1)
 150:framework.c   ****     ;
 151:framework.c   **** }
 152:framework.c   **** 
ARM GAS  /cygdrive/d/DOCUME~1/rshilkr/LOCALS~1/Temp/ccuamTZe.s 			page 4


 153:framework.c   **** #if (IRQ_HANDLER == 0)
 154:framework.c   **** /*****************************************************************************
 155:framework.c   ****  *
 156:framework.c   ****  * Description:
 157:framework.c   ****  *    Default exception handler for normal interrupts. This handler should
 158:framework.c   ****  *    normally never be used.
 159:framework.c   ****  *    Prints information and halt. Observe that code execture in exception
 160:framework.c   ****  *    mode (as opposed to supervisor mode, which is the normal execution mode).
 161:framework.c   ****  *
 162:framework.c   ****  ****************************************************************************/
 163:framework.c   **** static void
 164:framework.c   **** exceptionHandlerIrq(void)
 165:framework.c   **** {
 166:framework.c   ****   register unsigned int programCounter asm ("lr");
 167:framework.c   ****   unsigned int          value = programCounter - (unsigned int)0x04;
 168:framework.c   **** 
 169:framework.c   ****   consolSendString("IRQ exception !!!\nAddress: 0x");
 170:framework.c   ****   consolSendNumber(16, 8, 0, '0', value); 
 171:framework.c   ****   while(1)
 172:framework.c   ****     ;
 173:framework.c   **** }
 174:framework.c   **** #endif
 175:framework.c   **** 
 176:framework.c   **** /******************************************************************************
 177:framework.c   ****  * Implementation of public functions
 178:framework.c   ****  *****************************************************************************/
 179:framework.c   **** 
 180:framework.c   **** /*****************************************************************************
 181:framework.c   ****  *
 182:framework.c   ****  * Description:
 183:framework.c   ****  *    Connect all default exception handlers.
 184:framework.c   ****  *    The application can overwrite these handlers with new ones.
 185:framework.c   ****  *
 186:framework.c   ****  ****************************************************************************/
 187:framework.c   **** void
 188:framework.c   **** exceptionHandlerInit(void)
 189:framework.c   **** {
  16              		.loc 1 189 0
  17              		@ Function supports interworking.
  18              		@ args = 0, pretend = 0, frame = 0
  19              		@ frame_needed = 0, uses_anonymous_args = 0
  20              		@ link register save eliminated.
 190:framework.c   ****   pISR_UNDEF  = (unsigned int)exceptionHandlerUndef;
 191:framework.c   ****   pISR_SWI    = (unsigned int)exceptionHandlerSwi;
 192:framework.c   ****   pISR_PABORT = (unsigned int)exceptionHandlerPabort;
 193:framework.c   ****   pISR_DABORT = (unsigned int)exceptionHandlerDabort;
 194:framework.c   ****   pISR_FIQ    = (unsigned int)exceptionHandlerFiq;
 195:framework.c   **** 
 196:framework.c   **** #if (IRQ_HANDLER == 0)
 197:framework.c   ****   pISR_IRQ    = (unsigned int)exceptionHandlerIrq;
  21              		.loc 1 197 0
  22 0000 48309FE5 		ldr	r3, .L3
  23              		.loc 1 190 0
  24 0004 0111A0E3 		mov	r1, #1073741824
 198:framework.c   **** #endif
 199:framework.c   **** 
 200:framework.c   ****   //set heap limits
ARM GAS  /cygdrive/d/DOCUME~1/rshilkr/LOCALS~1/Temp/ccuamTZe.s 			page 5


 201:framework.c   ****   pHeapStart = &end;
  25              		.loc 1 201 0
  26 0008 44209FE5 		ldr	r2, .L3+4
  27              		.loc 1 197 0
  28 000c 343081E5 		str	r3, [r1, #52]
  29              		.loc 1 201 0
  30 0010 40309FE5 		ldr	r3, .L3+8
  31 0014 002083E5 		str	r2, [r3, #0]
 202:framework.c   ****   pHeapEnd   = (unsigned char*)((STK_SADDR - 1) & 0xfffffffc);
  32              		.loc 1 202 0
  33 0018 3C309FE5 		ldr	r3, .L3+12
  34 001c 3C209FE5 		ldr	r2, .L3+16
  35 0020 002083E5 		str	r2, [r3, #0]
  36              		.loc 1 190 0
  37 0024 38309FE5 		ldr	r3, .L3+20
  38 0028 243081E5 		str	r3, [r1, #36]
  39              		.loc 1 191 0
  40 002c 34309FE5 		ldr	r3, .L3+24
  41 0030 283081E5 		str	r3, [r1, #40]
  42              		.loc 1 192 0
  43 0034 30309FE5 		ldr	r3, .L3+28
  44 0038 2C3081E5 		str	r3, [r1, #44]
  45              		.loc 1 193 0
  46 003c 2C309FE5 		ldr	r3, .L3+32
  47 0040 303081E5 		str	r3, [r1, #48]
  48              		.loc 1 194 0
  49 0044 28309FE5 		ldr	r3, .L3+36
  50              		.loc 1 189 0
  51              		@ lr needed for prologue
  52              		.loc 1 194 0
  53 0048 383081E5 		str	r3, [r1, #56]
 203:framework.c   **** }
  54              		.loc 1 203 0
  55 004c 1EFF2FE1 		bx	lr
  56              	.L4:
  57              		.align	2
  58              	.L3:
  59 0050 00000000 		.word	exceptionHandlerIrq
  60 0054 00000000 		.word	end
  61 0058 00000000 		.word	pHeapStart
  62 005c 00000000 		.word	pHeapEnd
  63 0060 A4740040 		.word	1073771684
  64 0064 00000000 		.word	exceptionHandlerUndef
  65 0068 00000000 		.word	exceptionHandlerSwi
  66 006c 00000000 		.word	exceptionHandlerPabort
  67 0070 00000000 		.word	exceptionHandlerDabort
  68 0074 00000000 		.word	exceptionHandlerFiq
  69              	.LFE8:
  70              		.size	exceptionHandlerInit, .-exceptionHandlerInit
  71              		.align	2
  72              		.global	lowLevelInit
  73              		.type	lowLevelInit, %function
  74              	lowLevelInit:
  75              	.LFB9:
 204:framework.c   **** 
 205:framework.c   **** /*****************************************************************************
 206:framework.c   ****  *
ARM GAS  /cygdrive/d/DOCUME~1/rshilkr/LOCALS~1/Temp/ccuamTZe.s 			page 6


 207:framework.c   ****  * Description:
 208:framework.c   ****  *    Initialize system functions and GPIO
 209:framework.c   ****  *
 210:framework.c   ****  ****************************************************************************/
 211:framework.c   **** void
 212:framework.c   **** lowLevelInit(void)
 213:framework.c   **** {
  76              		.loc 1 213 0
  77              		@ Function supports interworking.
  78              		@ args = 0, pretend = 0, frame = 0
  79              		@ frame_needed = 0, uses_anonymous_args = 0
 214:framework.c   ****   PINSEL0 = 0x00000000;  
 215:framework.c   ****   PINSEL1 = 0x00000000;  
 216:framework.c   **** 
 217:framework.c   ****   IOSET = 0x00000000;       //Initialize pins to high level
  80              		.loc 1 217 0
  81 0078 A0109FE5 		ldr	r1, .L7
  82              		.loc 1 214 0
  83 007c A0C09FE5 		ldr	ip, .L7+4
  84 0080 0030A0E3 		mov	r3, #0
 218:framework.c   ****   IOCLR = 0xffffffff;       //Initialize pins to low level
  85              		.loc 1 218 0
  86 0084 0020E0E3 		mvn	r2, #0
 219:framework.c   ****   IODIR = 0x00000000;       //Set pin direction
 220:framework.c   **** 
 221:framework.c   ****   //initialize the MAM (Memory Accelerator Module)
 222:framework.c   ****   MAMTIM = MAM_TIMING;       //number of CCLK to read from the FLASH
  87              		.loc 1 222 0
  88 0088 98009FE5 		ldr	r0, .L7+8
  89              		.loc 1 214 0
  90 008c 00308CE5 		str	r3, [ip, #0]
  91              		.loc 1 215 0
  92 0090 04308CE5 		str	r3, [ip, #4]
  93              		.loc 1 217 0
  94 0094 043081E5 		str	r3, [r1, #4]
  95              		.loc 1 218 0
  96 0098 0C2081E5 		str	r2, [r1, #12]
  97              		.loc 1 219 0
  98 009c 083081E5 		str	r3, [r1, #8]
  99              		.loc 1 222 0
 100 00a0 0310A0E3 		mov	r1, #3
 101 00a4 041080E5 		str	r1, [r0, #4]
 102              		.loc 1 213 0
 103 00a8 04E02DE5 		str	lr, [sp, #-4]!
 104              	.LCFI0:
 223:framework.c   ****   MAMCR  = MAM_SETTING;      //0=disabled, 1=partly enabled (enabled for code prefetch, but not for
 105              		.loc 1 223 0
 106 00ac 0210A0E3 		mov	r1, #2
 224:framework.c   **** 
 225:framework.c   ****   //initialize the exception vector mapping
 226:framework.c   ****   MAMMAP = MAM_MAP;
 107              		.loc 1 226 0
 108 00b0 01E0A0E3 		mov	lr, #1
 109              		.loc 1 223 0
 110 00b4 001080E5 		str	r1, [r0, #0]
 111              		.loc 1 226 0
 112 00b8 40E080E5 		str	lr, [r0, #64]
ARM GAS  /cygdrive/d/DOCUME~1/rshilkr/LOCALS~1/Temp/ccuamTZe.s 			page 7


 227:framework.c   **** 
 228:framework.c   ****   //set the peripheral bus speed, PCLK = CCLK / PBSD
 229:framework.c   **** 	VPBDIV = PBSD;
 113              		.loc 1 229 0
 114 00bc 00E180E5 		str	lr, [r0, #256]
 230:framework.c   **** 	
 231:framework.c   **** 	//initialize VIC
 232:framework.c   ****   VICIntEnClr    = 0xFFFFFFFF;           /* Disable ALL interrupts                             */
 115              		.loc 1 232 0
 116 00c0 EB2F02E5 		str	r2, [r2, #-4075]
 233:framework.c   ****   VICProtection  = 0;                    /* Setup interrupt controller                         */
 117              		.loc 1 233 0
 118 00c4 DF3F02E5 		str	r3, [r2, #-4063]
 234:framework.c   ****   VICDefVectAddr = (unsigned int)0;      /* Direct unvectored IRQs to reset, i.e., address 0x0 */
 119              		.loc 1 234 0
 120 00c8 CB3F02E5 		str	r3, [r2, #-4043]
 235:framework.c   **** 
 236:framework.c   ****   VICVectAddr0   = (unsigned int)0;      /* Set the vector address                             */
 121              		.loc 1 236 0
 122 00cc FF3E02E5 		str	r3, [r2, #-3839]
 237:framework.c   ****   VICVectAddr1   = (unsigned int)0;      /* Set the vector address                             */
 123              		.loc 1 237 0
 124 00d0 FB3E02E5 		str	r3, [r2, #-3835]
 238:framework.c   ****   VICVectAddr2   = (unsigned int)0;      /* Set the vector address                             */
 125              		.loc 1 238 0
 126 00d4 F73E02E5 		str	r3, [r2, #-3831]
 239:framework.c   ****   VICVectAddr3   = (unsigned int)0;      /* Set the vector address                             */
 127              		.loc 1 239 0
 128 00d8 F33E02E5 		str	r3, [r2, #-3827]
 240:framework.c   ****   VICVectAddr4   = (unsigned int)0;      /* Set the vector address                             */
 129              		.loc 1 240 0
 130 00dc EF3E02E5 		str	r3, [r2, #-3823]
 241:framework.c   ****   VICVectAddr5   = (unsigned int)0;      /* Set the vector address                             */
 131              		.loc 1 241 0
 132 00e0 EB3E02E5 		str	r3, [r2, #-3819]
 242:framework.c   ****   VICVectAddr6   = (unsigned int)0;      /* Set the vector address                             */
 133              		.loc 1 242 0
 134 00e4 E73E02E5 		str	r3, [r2, #-3815]
 243:framework.c   ****   VICVectAddr7   = (unsigned int)0;      /* Set the vector address                             */
 135              		.loc 1 243 0
 136 00e8 E33E02E5 		str	r3, [r2, #-3811]
 244:framework.c   ****   VICVectAddr8   = (unsigned int)0;      /* Set the vector address                             */
 137              		.loc 1 244 0
 138 00ec DF3E02E5 		str	r3, [r2, #-3807]
 245:framework.c   ****   VICVectAddr9   = (unsigned int)0;      /* Set the vector address                             */
 139              		.loc 1 245 0
 140 00f0 DB3E02E5 		str	r3, [r2, #-3803]
 246:framework.c   ****   VICVectAddr10  = (unsigned int)0;      /* Set the vector address                             */
 141              		.loc 1 246 0
 142 00f4 D73E02E5 		str	r3, [r2, #-3799]
 247:framework.c   ****   VICVectAddr11  = (unsigned int)0;      /* Set the vector address                             */
 143              		.loc 1 247 0
 144 00f8 D33E02E5 		str	r3, [r2, #-3795]
 248:framework.c   ****   VICVectAddr12  = (unsigned int)0;      /* Set the vector address                             */
 145              		.loc 1 248 0
 146 00fc CF3E02E5 		str	r3, [r2, #-3791]
 249:framework.c   ****   VICVectAddr13  = (unsigned int)0;      /* Set the vector address                             */
ARM GAS  /cygdrive/d/DOCUME~1/rshilkr/LOCALS~1/Temp/ccuamTZe.s 			page 8


 147              		.loc 1 249 0
 148 0100 CB3E02E5 		str	r3, [r2, #-3787]
 250:framework.c   ****   VICVectAddr14  = (unsigned int)0;      /* Set the vector address                             */
 149              		.loc 1 250 0
 150 0104 C73E02E5 		str	r3, [r2, #-3783]
 251:framework.c   ****   VICVectAddr15  = (unsigned int)0;      /* Set the vector address                             */
 151              		.loc 1 251 0
 152 0108 C33E02E5 		str	r3, [r2, #-3779]
 252:framework.c   **** 	
 253:framework.c   ****   //enable interrupts (both IRQ and FIQ) 
 254:framework.c   ****   asm volatile ("mrs r3, cpsr       \n\t"                          
 153              		.loc 1 254 0
 154 010c 00300FE1 		mrs r3, cpsr       
 155 0110 C030C3E3 		bic r3, r3, #0xC0  
 156 0114 03F029E1 		msr cpsr, r3       
 157              		
 255:framework.c   ****                 "bic r3, r3, #0xC0  \n\t"                      
 256:framework.c   ****                 "msr cpsr, r3       \n\t"                          
 257:framework.c   ****                 :                                       
 258:framework.c   ****                 :                                       
 259:framework.c   ****                 : "r3" );
 260:framework.c   **** }
 158              		.loc 1 260 0
 159 0118 04E09DE4 		ldr	lr, [sp], #4
 160 011c 1EFF2FE1 		bx	lr
 161              	.L8:
 162              		.align	2
 163              	.L7:
 164 0120 008002E0 		.word	-536707072
 165 0124 00C002E0 		.word	-536690688
 166 0128 00C01FE0 		.word	-534790144
 167              	.LFE9:
 168              		.size	lowLevelInit, .-lowLevelInit
 169              		.align	2
 170              		.global	eaInit
 171              		.type	eaInit, %function
 172              	eaInit:
 173              	.LFB10:
 261:framework.c   **** 
 262:framework.c   **** /*****************************************************************************
 263:framework.c   ****  *
 264:framework.c   ****  * Description:
 265:framework.c   ****  *    Initialize the consol
 266:framework.c   ****  *
 267:framework.c   ****  ****************************************************************************/
 268:framework.c   **** void
 269:framework.c   **** eaInit(void)
 270:framework.c   **** {
 174              		.loc 1 270 0
 175              		@ Function supports interworking.
 176              		@ args = 0, pretend = 0, frame = 0
 177              		@ frame_needed = 0, uses_anonymous_args = 0
 178 012c 04E02DE5 		str	lr, [sp, #-4]!
 179              	.LCFI1:
 271:framework.c   ****   //initialize the consol
 272:framework.c   ****   consolInit();
 180              		.loc 1 272 0
ARM GAS  /cygdrive/d/DOCUME~1/rshilkr/LOCALS~1/Temp/ccuamTZe.s 			page 9


 181 0130 FEFFFFEB 		bl	consolInit
 273:framework.c   ****   
 274:framework.c   **** #ifdef CONSOL_STARTUP_DELAY
 275:framework.c   ****   /*
 276:framework.c   ****    * setup timer #1 for a short delay
 277:framework.c   ****    */
 278:framework.c   ****   TIMER1_TCR = 0x02;          //stop and reset timer
 182              		.loc 1 278 0
 183 0134 40209FE5 		ldr	r2, .L15
 184 0138 0230A0E3 		mov	r3, #2
 185 013c 043082E5 		str	r3, [r2, #4]
 279:framework.c   ****   TIMER1_PR  = 0x00;          //set prescaler to zero
 186              		.loc 1 279 0
 187 0140 0030A0E3 		mov	r3, #0
 188 0144 0C3082E5 		str	r3, [r2, #12]
 280:framework.c   ****   TIMER1_MR0 = CONSOL_STARTUP_DELAY_LENGTH * ((FOSC * PLL_MUL)/ (1000000 * PBSD));
 189              		.loc 1 280 0
 190 0148 30309FE5 		ldr	r3, .L15+4
 191 014c 183082E5 		str	r3, [r2, #24]
 281:framework.c   ****   TIMER1_IR  = 0xff;          //reset all interrrupt flags
 192              		.loc 1 281 0
 193 0150 FF30A0E3 		mov	r3, #255
 194 0154 003082E5 		str	r3, [r2, #0]
 282:framework.c   ****   TIMER1_MCR = 0x04;          //stop timer on match
 195              		.loc 1 282 0
 196 0158 0430A0E3 		mov	r3, #4
 197 015c 143082E5 		str	r3, [r2, #20]
 283:framework.c   ****   TIMER1_TCR = 0x01;          //start timer
 198              		.loc 1 283 0
 199 0160 0130A0E3 		mov	r3, #1
 200 0164 043082E5 		str	r3, [r2, #4]
 201              	.L10:
 284:framework.c   ****   
 285:framework.c   ****   //wait until delay time has elapsed
 286:framework.c   ****   while (TIMER1_TCR & 0x01)
 202              		.loc 1 286 0
 203 0168 043092E5 		ldr	r3, [r2, #4]
 204 016c 010013E3 		tst	r3, #1
 205 0170 FCFFFF1A 		bne	.L10
 287:framework.c   ****     ;
 288:framework.c   **** #endif
 289:framework.c   **** }
 206              		.loc 1 289 0
 207 0174 04E09DE4 		ldr	lr, [sp], #4
 208 0178 1EFF2FE1 		bx	lr
 209              	.L16:
 210              		.align	2
 211              	.L15:
 212 017c 008000E0 		.word	-536838144
 213 0180 70170000 		.word	6000
 214              	.LFE10:
 215              		.size	eaInit, .-eaInit
 216              		.section	.rodata.str1.4,"aMS",%progbits,1
 217              		.align	2
 218              	.LC0:
 219 0000 49525120 		.ascii	"IRQ exception !!!\012Address: 0x\000"
 219      65786365 
ARM GAS  /cygdrive/d/DOCUME~1/rshilkr/LOCALS~1/Temp/ccuamTZe.s 			page 10


 219      7074696F 
 219      6E202121 
 219      210A4164 
 220              		.text
 221              		.align	2
 222              		.type	exceptionHandlerIrq, %function
 223              	exceptionHandlerIrq:
 224              	.LFB7:
 225              		.loc 1 165 0
 226              		@ Function supports interworking.
 227              		@ args = 0, pretend = 0, frame = 0
 228              		@ frame_needed = 0, uses_anonymous_args = 0
 229 0184 10402DE9 		stmfd	sp!, {r4, lr}
 230              	.LCFI2:
 231              		.loc 1 169 0
 232 0188 28009FE5 		ldr	r0, .L20
 233              		.loc 1 165 0
 234 018c 04D04DE2 		sub	sp, sp, #4
 235              	.LCFI3:
 236              		.loc 1 167 0
 237 0190 0E40A0E1 		mov	r4, lr
 238              	.LVL0:
 239              		.loc 1 170 0
 240 0194 044044E2 		sub	r4, r4, #4
 241              		.loc 1 169 0
 242 0198 FEFFFFEB 		bl	consolSendString
 243              	.LVL1:
 244              		.loc 1 170 0
 245 019c 1000A0E3 		mov	r0, #16
 246 01a0 0810A0E3 		mov	r1, #8
 247 01a4 0020A0E3 		mov	r2, #0
 248 01a8 3030A0E3 		mov	r3, #48
 249 01ac 00408DE5 		str	r4, [sp, #0]
 250 01b0 FEFFFFEB 		bl	consolSendNumber
 251              	.L18:
 252 01b4 FEFFFFEA 		b	.L18
 253              	.L21:
 254              		.align	2
 255              	.L20:
 256 01b8 00000000 		.word	.LC0
 257              	.LFE7:
 258              		.size	exceptionHandlerIrq, .-exceptionHandlerIrq
 259              		.section	.rodata.str1.4
 260 001e 0000     		.align	2
 261              	.LC1:
 262 0020 46495120 		.ascii	"FIQ exception !!!\012Address: 0x\000"
 262      65786365 
 262      7074696F 
 262      6E202121 
 262      210A4164 
 263              		.text
 264              		.align	2
 265              		.type	exceptionHandlerFiq, %function
 266              	exceptionHandlerFiq:
 267              	.LFB6:
 268              		.loc 1 143 0
 269              		@ Function supports interworking.
ARM GAS  /cygdrive/d/DOCUME~1/rshilkr/LOCALS~1/Temp/ccuamTZe.s 			page 11


 270              		@ args = 0, pretend = 0, frame = 0
 271              		@ frame_needed = 0, uses_anonymous_args = 0
 272 01bc 10402DE9 		stmfd	sp!, {r4, lr}
 273              	.LCFI4:
 274              		.loc 1 147 0
 275 01c0 28009FE5 		ldr	r0, .L25
 276              		.loc 1 143 0
 277 01c4 04D04DE2 		sub	sp, sp, #4
 278              	.LCFI5:
 279              		.loc 1 145 0
 280 01c8 0E40A0E1 		mov	r4, lr
 281              	.LVL2:
 282              		.loc 1 148 0
 283 01cc 044044E2 		sub	r4, r4, #4
 284              		.loc 1 147 0
 285 01d0 FEFFFFEB 		bl	consolSendString
 286              	.LVL3:
 287              		.loc 1 148 0
 288 01d4 1000A0E3 		mov	r0, #16
 289 01d8 0810A0E3 		mov	r1, #8
 290 01dc 0020A0E3 		mov	r2, #0
 291 01e0 3030A0E3 		mov	r3, #48
 292 01e4 00408DE5 		str	r4, [sp, #0]
 293 01e8 FEFFFFEB 		bl	consolSendNumber
 294              	.L23:
 295 01ec FEFFFFEA 		b	.L23
 296              	.L26:
 297              		.align	2
 298              	.L25:
 299 01f0 20000000 		.word	.LC1
 300              	.LFE6:
 301              		.size	exceptionHandlerFiq, .-exceptionHandlerFiq
 302              		.section	.rodata.str1.4
 303 003e 0000     		.align	2
 304              	.LC2:
 305 0040 4461626F 		.ascii	"Dabort exception !!!\012Address: 0x\000"
 305      72742065 
 305      78636570 
 305      74696F6E 
 305      20212121 
 306              		.text
 307              		.align	2
 308              		.type	exceptionHandlerDabort, %function
 309              	exceptionHandlerDabort:
 310              	.LFB5:
 311              		.loc 1 123 0
 312              		@ Function supports interworking.
 313              		@ args = 0, pretend = 0, frame = 0
 314              		@ frame_needed = 0, uses_anonymous_args = 0
 315 01f4 10402DE9 		stmfd	sp!, {r4, lr}
 316              	.LCFI6:
 317              		.loc 1 127 0
 318 01f8 28009FE5 		ldr	r0, .L30
 319              		.loc 1 123 0
 320 01fc 04D04DE2 		sub	sp, sp, #4
 321              	.LCFI7:
 322              		.loc 1 125 0
ARM GAS  /cygdrive/d/DOCUME~1/rshilkr/LOCALS~1/Temp/ccuamTZe.s 			page 12


 323 0200 0E40A0E1 		mov	r4, lr
 324              	.LVL4:
 325              		.loc 1 128 0
 326 0204 084044E2 		sub	r4, r4, #8
 327              		.loc 1 127 0
 328 0208 FEFFFFEB 		bl	consolSendString
 329              	.LVL5:
 330              		.loc 1 128 0
 331 020c 1000A0E3 		mov	r0, #16
 332 0210 0810A0E3 		mov	r1, #8
 333 0214 0020A0E3 		mov	r2, #0
 334 0218 3030A0E3 		mov	r3, #48
 335 021c 00408DE5 		str	r4, [sp, #0]
 336 0220 FEFFFFEB 		bl	consolSendNumber
 337              	.L28:
 338 0224 FEFFFFEA 		b	.L28
 339              	.L31:
 340              		.align	2
 341              	.L30:
 342 0228 40000000 		.word	.LC2
 343              	.LFE5:
 344              		.size	exceptionHandlerDabort, .-exceptionHandlerDabort
 345              		.section	.rodata.str1.4
 346 0061 000000   		.align	2
 347              	.LC3:
 348 0064 5061626F 		.ascii	"Pabort exception !!!\012Address: 0x\000"
 348      72742065 
 348      78636570 
 348      74696F6E 
 348      20212121 
 349              		.text
 350              		.align	2
 351              		.type	exceptionHandlerPabort, %function
 352              	exceptionHandlerPabort:
 353              	.LFB4:
 354              		.loc 1 103 0
 355              		@ Function supports interworking.
 356              		@ args = 0, pretend = 0, frame = 0
 357              		@ frame_needed = 0, uses_anonymous_args = 0
 358 022c 10402DE9 		stmfd	sp!, {r4, lr}
 359              	.LCFI8:
 360              		.loc 1 107 0
 361 0230 28009FE5 		ldr	r0, .L35
 362              		.loc 1 103 0
 363 0234 04D04DE2 		sub	sp, sp, #4
 364              	.LCFI9:
 365              		.loc 1 105 0
 366 0238 0E40A0E1 		mov	r4, lr
 367              	.LVL6:
 368              		.loc 1 108 0
 369 023c 044044E2 		sub	r4, r4, #4
 370              		.loc 1 107 0
 371 0240 FEFFFFEB 		bl	consolSendString
 372              	.LVL7:
 373              		.loc 1 108 0
 374 0244 1000A0E3 		mov	r0, #16
 375 0248 0810A0E3 		mov	r1, #8
ARM GAS  /cygdrive/d/DOCUME~1/rshilkr/LOCALS~1/Temp/ccuamTZe.s 			page 13


 376 024c 0020A0E3 		mov	r2, #0
 377 0250 3030A0E3 		mov	r3, #48
 378 0254 00408DE5 		str	r4, [sp, #0]
 379 0258 FEFFFFEB 		bl	consolSendNumber
 380              	.L33:
 381 025c FEFFFFEA 		b	.L33
 382              	.L36:
 383              		.align	2
 384              	.L35:
 385 0260 64000000 		.word	.LC3
 386              	.LFE4:
 387              		.size	exceptionHandlerPabort, .-exceptionHandlerPabort
 388              		.section	.rodata.str1.4
 389 0085 000000   		.align	2
 390              	.LC4:
 391 0088 53574920 		.ascii	"SWI exception !!!\012Address: 0x\000"
 391      65786365 
 391      7074696F 
 391      6E202121 
 391      210A4164 
 392              		.text
 393              		.align	2
 394              		.type	exceptionHandlerSwi, %function
 395              	exceptionHandlerSwi:
 396              	.LFB3:
 397              		.loc 1 83 0
 398              		@ Function supports interworking.
 399              		@ args = 0, pretend = 0, frame = 0
 400              		@ frame_needed = 0, uses_anonymous_args = 0
 401 0264 10402DE9 		stmfd	sp!, {r4, lr}
 402              	.LCFI10:
 403              		.loc 1 87 0
 404 0268 28009FE5 		ldr	r0, .L40
 405              		.loc 1 83 0
 406 026c 04D04DE2 		sub	sp, sp, #4
 407              	.LCFI11:
 408              		.loc 1 85 0
 409 0270 0E40A0E1 		mov	r4, lr
 410              	.LVL8:
 411              		.loc 1 88 0
 412 0274 044044E2 		sub	r4, r4, #4
 413              		.loc 1 87 0
 414 0278 FEFFFFEB 		bl	consolSendString
 415              	.LVL9:
 416              		.loc 1 88 0
 417 027c 1000A0E3 		mov	r0, #16
 418 0280 0810A0E3 		mov	r1, #8
 419 0284 0020A0E3 		mov	r2, #0
 420 0288 3030A0E3 		mov	r3, #48
 421 028c 00408DE5 		str	r4, [sp, #0]
 422 0290 FEFFFFEB 		bl	consolSendNumber
 423              	.L38:
 424 0294 FEFFFFEA 		b	.L38
 425              	.L41:
 426              		.align	2
 427              	.L40:
 428 0298 88000000 		.word	.LC4
ARM GAS  /cygdrive/d/DOCUME~1/rshilkr/LOCALS~1/Temp/ccuamTZe.s 			page 14


 429              	.LFE3:
 430              		.size	exceptionHandlerSwi, .-exceptionHandlerSwi
 431              		.section	.rodata.str1.4
 432 00a6 0000     		.align	2
 433              	.LC5:
 434 00a8 556E6465 		.ascii	"Undefined instruction exception !!!\012Address: 0x\000"
 434      66696E65 
 434      6420696E 
 434      73747275 
 434      6374696F 
 435              		.text
 436              		.align	2
 437              		.type	exceptionHandlerUndef, %function
 438              	exceptionHandlerUndef:
 439              	.LFB2:
 440              		.loc 1 63 0
 441              		@ Function supports interworking.
 442              		@ args = 0, pretend = 0, frame = 0
 443              		@ frame_needed = 0, uses_anonymous_args = 0
 444 029c 10402DE9 		stmfd	sp!, {r4, lr}
 445              	.LCFI12:
 446              		.loc 1 67 0
 447 02a0 28009FE5 		ldr	r0, .L45
 448              		.loc 1 63 0
 449 02a4 04D04DE2 		sub	sp, sp, #4
 450              	.LCFI13:
 451              		.loc 1 65 0
 452 02a8 0E40A0E1 		mov	r4, lr
 453              	.LVL10:
 454              		.loc 1 68 0
 455 02ac 044044E2 		sub	r4, r4, #4
 456              		.loc 1 67 0
 457 02b0 FEFFFFEB 		bl	consolSendString
 458              	.LVL11:
 459              		.loc 1 68 0
 460 02b4 1000A0E3 		mov	r0, #16
 461 02b8 0810A0E3 		mov	r1, #8
 462 02bc 0020A0E3 		mov	r2, #0
 463 02c0 3030A0E3 		mov	r3, #48
 464 02c4 00408DE5 		str	r4, [sp, #0]
 465 02c8 FEFFFFEB 		bl	consolSendNumber
 466              	.L43:
 467 02cc FEFFFFEA 		b	.L43
 468              	.L46:
 469              		.align	2
 470              	.L45:
 471 02d0 A8000000 		.word	.LC5
 472              	.LFE2:
 473              		.size	exceptionHandlerUndef, .-exceptionHandlerUndef
 474              		.comm	pHeapStart,4,4
 475              		.comm	pHeapEnd,4,4
 476              		.section	.debug_frame,"",%progbits
 477              	.Lframe0:
 478 0000 0C000000 		.4byte	.LECIE0-.LSCIE0
 479              	.LSCIE0:
 480 0004 FFFFFFFF 		.4byte	0xffffffff
 481 0008 01       		.byte	0x1
ARM GAS  /cygdrive/d/DOCUME~1/rshilkr/LOCALS~1/Temp/ccuamTZe.s 			page 15


 482 0009 00       		.ascii	"\000"
 483 000a 01       		.uleb128 0x1
 484 000b 7C       		.sleb128 -4
 485 000c 0E       		.byte	0xe
 486 000d 0C       		.byte	0xc
 487 000e 0D       		.uleb128 0xd
 488 000f 00       		.uleb128 0x0
 489              		.align	2
 490              	.LECIE0:
 491              	.LSFDE0:
 492 0010 0C000000 		.4byte	.LEFDE0-.LASFDE0
 493              	.LASFDE0:
 494 0014 00000000 		.4byte	.Lframe0
 495 0018 00000000 		.4byte	.LFB8
 496 001c 78000000 		.4byte	.LFE8-.LFB8
 497              		.align	2
 498              	.LEFDE0:
 499              	.LSFDE2:
 500 0020 14000000 		.4byte	.LEFDE2-.LASFDE2
 501              	.LASFDE2:
 502 0024 00000000 		.4byte	.Lframe0
 503 0028 78000000 		.4byte	.LFB9
 504 002c B4000000 		.4byte	.LFE9-.LFB9
 505 0030 74       		.byte	0x4
 506              		.4byte	.LCFI0-.LFB9
 507 0031 0E       		.byte	0xe
 508 0032 04       		.uleb128 0x4
 509 0033 8E       		.byte	0x8e
 510 0034 01       		.uleb128 0x1
 511 0035 000000   		.align	2
 512              	.LEFDE2:
 513              	.LSFDE4:
 514 0038 14000000 		.4byte	.LEFDE4-.LASFDE4
 515              	.LASFDE4:
 516 003c 00000000 		.4byte	.Lframe0
 517 0040 2C010000 		.4byte	.LFB10
 518 0044 58000000 		.4byte	.LFE10-.LFB10
 519 0048 44       		.byte	0x4
 520              		.4byte	.LCFI1-.LFB10
 521 0049 0E       		.byte	0xe
 522 004a 04       		.uleb128 0x4
 523 004b 8E       		.byte	0x8e
 524 004c 01       		.uleb128 0x1
 525 004d 000000   		.align	2
 526              	.LEFDE4:
 527              	.LSFDE6:
 528 0050 18000000 		.4byte	.LEFDE6-.LASFDE6
 529              	.LASFDE6:
 530 0054 00000000 		.4byte	.Lframe0
 531 0058 84010000 		.4byte	.LFB7
 532 005c 38000000 		.4byte	.LFE7-.LFB7
 533 0060 44       		.byte	0x4
 534              		.4byte	.LCFI2-.LFB7
 535 0061 0E       		.byte	0xe
 536 0062 08       		.uleb128 0x8
 537 0063 48       		.byte	0x4
 538              		.4byte	.LCFI3-.LCFI2
ARM GAS  /cygdrive/d/DOCUME~1/rshilkr/LOCALS~1/Temp/ccuamTZe.s 			page 16


 539 0064 0E       		.byte	0xe
 540 0065 0C       		.uleb128 0xc
 541 0066 8E       		.byte	0x8e
 542 0067 01       		.uleb128 0x1
 543 0068 84       		.byte	0x84
 544 0069 02       		.uleb128 0x2
 545 006a 0000     		.align	2
 546              	.LEFDE6:
 547              	.LSFDE8:
 548 006c 18000000 		.4byte	.LEFDE8-.LASFDE8
 549              	.LASFDE8:
 550 0070 00000000 		.4byte	.Lframe0
 551 0074 BC010000 		.4byte	.LFB6
 552 0078 38000000 		.4byte	.LFE6-.LFB6
 553 007c 44       		.byte	0x4
 554              		.4byte	.LCFI4-.LFB6
 555 007d 0E       		.byte	0xe
 556 007e 08       		.uleb128 0x8
 557 007f 48       		.byte	0x4
 558              		.4byte	.LCFI5-.LCFI4
 559 0080 0E       		.byte	0xe
 560 0081 0C       		.uleb128 0xc
 561 0082 8E       		.byte	0x8e
 562 0083 01       		.uleb128 0x1
 563 0084 84       		.byte	0x84
 564 0085 02       		.uleb128 0x2
 565 0086 0000     		.align	2
 566              	.LEFDE8:
 567              	.LSFDE10:
 568 0088 18000000 		.4byte	.LEFDE10-.LASFDE10
 569              	.LASFDE10:
 570 008c 00000000 		.4byte	.Lframe0
 571 0090 F4010000 		.4byte	.LFB5
 572 0094 38000000 		.4byte	.LFE5-.LFB5
 573 0098 44       		.byte	0x4
 574              		.4byte	.LCFI6-.LFB5
 575 0099 0E       		.byte	0xe
 576 009a 08       		.uleb128 0x8
 577 009b 48       		.byte	0x4
 578              		.4byte	.LCFI7-.LCFI6
 579 009c 0E       		.byte	0xe
 580 009d 0C       		.uleb128 0xc
 581 009e 8E       		.byte	0x8e
 582 009f 01       		.uleb128 0x1
 583 00a0 84       		.byte	0x84
 584 00a1 02       		.uleb128 0x2
 585 00a2 0000     		.align	2
 586              	.LEFDE10:
 587              	.LSFDE12:
 588 00a4 18000000 		.4byte	.LEFDE12-.LASFDE12
 589              	.LASFDE12:
 590 00a8 00000000 		.4byte	.Lframe0
 591 00ac 2C020000 		.4byte	.LFB4
 592 00b0 38000000 		.4byte	.LFE4-.LFB4
 593 00b4 44       		.byte	0x4
 594              		.4byte	.LCFI8-.LFB4
 595 00b5 0E       		.byte	0xe
ARM GAS  /cygdrive/d/DOCUME~1/rshilkr/LOCALS~1/Temp/ccuamTZe.s 			page 17


 596 00b6 08       		.uleb128 0x8
 597 00b7 48       		.byte	0x4
 598              		.4byte	.LCFI9-.LCFI8
 599 00b8 0E       		.byte	0xe
 600 00b9 0C       		.uleb128 0xc
 601 00ba 8E       		.byte	0x8e
 602 00bb 01       		.uleb128 0x1
 603 00bc 84       		.byte	0x84
 604 00bd 02       		.uleb128 0x2
 605 00be 0000     		.align	2
 606              	.LEFDE12:
 607              	.LSFDE14:
 608 00c0 18000000 		.4byte	.LEFDE14-.LASFDE14
 609              	.LASFDE14:
 610 00c4 00000000 		.4byte	.Lframe0
 611 00c8 64020000 		.4byte	.LFB3
 612 00cc 38000000 		.4byte	.LFE3-.LFB3
 613 00d0 44       		.byte	0x4
 614              		.4byte	.LCFI10-.LFB3
 615 00d1 0E       		.byte	0xe
 616 00d2 08       		.uleb128 0x8
 617 00d3 48       		.byte	0x4
 618              		.4byte	.LCFI11-.LCFI10
 619 00d4 0E       		.byte	0xe
 620 00d5 0C       		.uleb128 0xc
 621 00d6 8E       		.byte	0x8e
 622 00d7 01       		.uleb128 0x1
 623 00d8 84       		.byte	0x84
 624 00d9 02       		.uleb128 0x2
 625 00da 0000     		.align	2
 626              	.LEFDE14:
 627              	.LSFDE16:
 628 00dc 18000000 		.4byte	.LEFDE16-.LASFDE16
 629              	.LASFDE16:
 630 00e0 00000000 		.4byte	.Lframe0
 631 00e4 9C020000 		.4byte	.LFB2
 632 00e8 38000000 		.4byte	.LFE2-.LFB2
 633 00ec 44       		.byte	0x4
 634              		.4byte	.LCFI12-.LFB2
 635 00ed 0E       		.byte	0xe
 636 00ee 08       		.uleb128 0x8
 637 00ef 48       		.byte	0x4
 638              		.4byte	.LCFI13-.LCFI12
 639 00f0 0E       		.byte	0xe
 640 00f1 0C       		.uleb128 0xc
 641 00f2 8E       		.byte	0x8e
 642 00f3 01       		.uleb128 0x1
 643 00f4 84       		.byte	0x84
 644 00f5 02       		.uleb128 0x2
 645 00f6 0000     		.align	2
 646              	.LEFDE16:
 647              		.text
 648              	.Letext0: