ARM GAS  /cygdrive/d/DOCUME~1/rshilkr/LOCALS~1/Temp/ccB1gYMi.s 			page 1


   1              		.file	"irqUart.c"
   2              		.section	.debug_abbrev,"",%progbits
   3              	.Ldebug_abbrev0:
   4              		.section	.debug_info,"",%progbits
   5              	.Ldebug_info0:
   6              		.section	.debug_line,"",%progbits
   7              	.Ldebug_line0:
   8 0000 A0000000 		.text
   8      02005000 
   8      00000201 
   8      FB0E0D00 
   8      01010101 
   9              	.Ltext0:
  10              		.align	2
  11              		.global	uart1ISR
  12              		.type	uart1ISR, %function
  13              	uart1ISR:
  14              	.LFB2:
  15              		.file 1 "irqUart.c"
   1:irqUart.c     **** /******************************************************************************
   2:irqUart.c     ****  *
   3:irqUart.c     ****  * Copyright:
   4:irqUart.c     ****  *    (C) 2005 Embedded Artists AB
   5:irqUart.c     ****  *
   6:irqUart.c     ****  * File:
   7:irqUart.c     ****  *    irqUart.c
   8:irqUart.c     ****  *
   9:irqUart.c     ****  * Description:
  10:irqUart.c     ****  *    Sample irq code, that must be compiled in ARM code.
  11:irqUart.c     ****  *
  12:irqUart.c     ****  *****************************************************************************/
  13:irqUart.c     **** 
  14:irqUart.c     **** /******************************************************************************
  15:irqUart.c     ****  * Includes
  16:irqUart.c     ****  *****************************************************************************/
  17:irqUart.c     **** #include "../pre_emptive_os/api/general.h"
  18:irqUart.c     **** #include <lpc2xxx.h>
  19:irqUart.c     **** #include "irqUart.h"
  20:irqUart.c     **** #include "../uart.h"
  21:irqUart.c     **** 
  22:irqUart.c     **** /*****************************************************************************
  23:irqUart.c     ****  * Public function prototypes
  24:irqUart.c     ****  ****************************************************************************/
  25:irqUart.c     **** //void uart1ISR(void) __attribute__ ((interrupt));
  26:irqUart.c     **** 
  27:irqUart.c     **** 
  28:irqUart.c     **** /*****************************************************************************
  29:irqUart.c     ****  * Implementation of public functions
  30:irqUart.c     ****  ****************************************************************************/
  31:irqUart.c     **** 
  32:irqUart.c     **** /*****************************************************************************
  33:irqUart.c     ****  *
  34:irqUart.c     ****  * Description:
  35:irqUart.c     ****  *    Actual uart #1 ISR that is called whenever the uart generated an interrupt.
  36:irqUart.c     ****  *
  37:irqUart.c     ****  ****************************************************************************/
  38:irqUart.c     **** void
ARM GAS  /cygdrive/d/DOCUME~1/rshilkr/LOCALS~1/Temp/ccB1gYMi.s 			page 2


  39:irqUart.c     **** uart1ISR(void)
  40:irqUart.c     **** {
  16              		.loc 1 40 0
  17              		@ Function supports interworking.
  18              		@ args = 0, pretend = 0, frame = 12
  19              		@ frame_needed = 0, uses_anonymous_args = 0
  20 0000 F0452DE9 		stmfd	sp!, {r4, r5, r6, r7, r8, sl, lr}
  21              	.LCFI0:
  41:irqUart.c     ****   volatile tU8  statusReg;
  42:irqUart.c     ****   volatile tU8  dummy;
  43:irqUart.c     ****   volatile tU32 tmpHead;
  44:irqUart.c     ****   volatile tU32 tmpTail;
  45:irqUart.c     **** 
  46:irqUart.c     ****   //loop until not more interrupt sources
  47:irqUart.c     ****   while (((statusReg = U1IIR) & 0x01) == 0)
  22              		.loc 1 47 0
  23 0004 74019FE5 		ldr	r0, .L28
  48:irqUart.c     ****   {
  49:irqUart.c     ****     //identify and process the highest priority interrupt
  50:irqUart.c     ****     switch (statusReg & 0x0E)
  51:irqUart.c     ****     {
  52:irqUart.c     ****       case 0x06:  //Receive Line Status
  53:irqUart.c     ****       dummy = U1LSR;  //read LSR to clear bits
  54:irqUart.c     ****       break;
  55:irqUart.c     **** 
  56:irqUart.c     ****       case 0x0c:  //Character Timeout Indicator
  57:irqUart.c     ****       case 0x04:  //Receive Data Available
  58:irqUart.c     ****       do
  59:irqUart.c     ****       {
  60:irqUart.c     ****         tmpHead     = (uart1RxHead + 1) & RX_BUFFER_MASK;
  24              		.loc 1 60 0
  25 0008 74419FE5 		ldr	r4, .L28+4
  61:irqUart.c     ****         uart1RxHead = tmpHead;
  62:irqUart.c     **** 
  63:irqUart.c     ****         if(tmpHead == uart1RxTail)
  26              		.loc 1 63 0
  27 000c 74A19FE5 		ldr	sl, .L28+8
  64:irqUart.c     ****           tmpHead = U1RBR;              //dummy read to reset IRQ flag
  65:irqUart.c     ****         else
  66:irqUart.c     ****           uart1RxBuf[tmpHead] = U1RBR;  //will reset IRQ flag
  28              		.loc 1 66 0
  29 0010 74819FE5 		ldr	r8, .L28+12
  67:irqUart.c     ****       } while (U1LSR & 0x01);
  68:irqUart.c     ****       break;
  69:irqUart.c     **** 
  70:irqUart.c     ****       case 0x02:  //Transmit Holding Register Empty
  71:irqUart.c     ****       //check if all data is transmitted
  72:irqUart.c     ****       if (uart1TxHead != uart1TxTail)
  30              		.loc 1 72 0
  31 0014 74E19FE5 		ldr	lr, .L28+16
  32 0018 74C19FE5 		ldr	ip, .L28+20
  73:irqUart.c     ****       {
  74:irqUart.c     ****       	tU32 bytesToSend;
  75:irqUart.c     ****       	
  76:irqUart.c     ****       	if (statusReg & 0xc0)
  77:irqUart.c     ****       	  bytesToSend = 16;    //FIFO enabled
  78:irqUart.c     ****       	else
ARM GAS  /cygdrive/d/DOCUME~1/rshilkr/LOCALS~1/Temp/ccB1gYMi.s 			page 3


  79:irqUart.c     ****       	  bytesToSend = 1;     //no FIFO enabled
  80:irqUart.c     **** 
  81:irqUart.c     ****       	do
  82:irqUart.c     ****       	{
  83:irqUart.c     ****           //calculate buffer index
  84:irqUart.c     ****           tmpTail = (uart1TxTail + 1) & TX_BUFFER_MASK;
  85:irqUart.c     **** 
  86:irqUart.c     ****           uart1TxTail = tmpTail;
  87:irqUart.c     ****           U1THR = uart1TxBuf[tmpTail]; 
  88:irqUart.c     ****         } while((uart1TxHead != uart1TxTail) && --bytesToSend);
  89:irqUart.c     ****       }
  90:irqUart.c     **** 
  91:irqUart.c     ****       //all data has been transmitted
  92:irqUart.c     ****       else
  93:irqUart.c     ****       {
  94:irqUart.c     ****         uart1TxRunning = FALSE;
  33              		.loc 1 94 0
  34 001c 74719FE5 		ldr	r7, .L28+24
  35              	.LBB2:
  36              		.loc 1 87 0
  37 0020 74619FE5 		ldr	r6, .L28+28
  38              	.LBE2:
  39              		.loc 1 40 0
  40 0024 0CD04DE2 		sub	sp, sp, #12
  41              	.LCFI1:
  42              		.loc 1 94 0
  43 0028 0050A0E3 		mov	r5, #0
  44 002c 470000EA 		b	.L27
  45              	.LVL0:
  46              	.L3:
  47              		.loc 1 50 0
  48 0030 0B30DDE5 		ldrb	r3, [sp, #11]	@ zero_extendqisi2
  49              	.LVL1:
  50 0034 0E3003E2 		and	r3, r3, #14
  51              	.LVL2:
  52 0038 023043E2 		sub	r3, r3, #2
  53 003c 0A0053E3 		cmp	r3, #10
  54 0040 03F19F97 		ldrls	pc, [pc, r3, asl #2]
  55 0044 3B0000EA 		b	.L4
  56              		.p2align 2
  57              	.L8:
  58 0048 C4000000 		.word	.L5
  59 004c 38010000 		.word	.L4
  60 0050 7C000000 		.word	.L21
  61 0054 38010000 		.word	.L4
  62 0058 74000000 		.word	.L7
  63 005c 38010000 		.word	.L4
  64 0060 38010000 		.word	.L4
  65 0064 38010000 		.word	.L4
  66 0068 38010000 		.word	.L4
  67 006c 38010000 		.word	.L4
  68 0070 7C000000 		.word	.L21
  69              	.L7:
  70              		.loc 1 53 0
  71 0074 143090E5 		ldr	r3, [r0, #20]
  72 0078 320000EA 		b	.L26
  73              	.L21:
ARM GAS  /cygdrive/d/DOCUME~1/rshilkr/LOCALS~1/Temp/ccB1gYMi.s 			page 4


  74              		.loc 1 60 0
  75 007c 003094E5 		ldr	r3, [r4, #0]
  76 0080 013083E2 		add	r3, r3, #1
  77 0084 3F3003E2 		and	r3, r3, #63
  78 0088 04308DE5 		str	r3, [sp, #4]
  79              	.LVL3:
  80              		.loc 1 61 0
  81 008c 04309DE5 		ldr	r3, [sp, #4]
  82 0090 003084E5 		str	r3, [r4, #0]
  83              		.loc 1 63 0
  84 0094 04209DE5 		ldr	r2, [sp, #4]
  85 0098 00309AE5 		ldr	r3, [sl, #0]
  86 009c 030052E1 		cmp	r2, r3
  87              		.loc 1 66 0
  88 00a0 04209D15 		ldrne	r2, [sp, #4]
  89              		.loc 1 64 0
  90 00a4 00309005 		ldreq	r3, [r0, #0]
  91              		.loc 1 66 0
  92 00a8 00309015 		ldrne	r3, [r0, #0]
  93              		.loc 1 64 0
  94 00ac 04308D05 		streq	r3, [sp, #4]
  95              	.LVL4:
  96              		.loc 1 66 0
  97 00b0 0230C817 		strneb	r3, [r8, r2]
  98              		.loc 1 67 0
  99 00b4 143090E5 		ldr	r3, [r0, #20]
 100 00b8 010013E3 		tst	r3, #1
 101 00bc 2300000A 		beq	.L27
 102 00c0 EDFFFFEA 		b	.L21
 103              	.L5:
 104              		.loc 1 72 0
 105 00c4 00209EE5 		ldr	r2, [lr, #0]
 106 00c8 00309CE5 		ldr	r3, [ip, #0]
 107 00cc 030052E1 		cmp	r2, r3
 108 00d0 1300000A 		beq	.L12
 109              	.LBB3:
 110              		.loc 1 76 0
 111 00d4 0B30DDE5 		ldrb	r3, [sp, #11]	@ zero_extendqisi2
 112              	.LVL5:
 113 00d8 C00013E3 		tst	r3, #192
 114 00dc 0110A003 		moveq	r1, #1
 115 00e0 1010A013 		movne	r1, #16
 116              	.L16:
 117              		.loc 1 84 0
 118 00e4 00309CE5 		ldr	r3, [ip, #0]
 119              	.LVL6:
 120 00e8 013083E2 		add	r3, r3, #1
 121 00ec 3F3003E2 		and	r3, r3, #63
 122 00f0 00308DE5 		str	r3, [sp, #0]
 123              	.LVL7:
 124              		.loc 1 86 0
 125 00f4 00309DE5 		ldr	r3, [sp, #0]
 126 00f8 00308CE5 		str	r3, [ip, #0]
 127              		.loc 1 87 0
 128 00fc 00309DE5 		ldr	r3, [sp, #0]
 129 0100 0330D6E7 		ldrb	r3, [r6, r3]	@ zero_extendqisi2
 130 0104 003080E5 		str	r3, [r0, #0]
ARM GAS  /cygdrive/d/DOCUME~1/rshilkr/LOCALS~1/Temp/ccB1gYMi.s 			page 5


 131              		.loc 1 88 0
 132 0108 00209EE5 		ldr	r2, [lr, #0]
 133 010c 00309CE5 		ldr	r3, [ip, #0]
 134 0110 030052E1 		cmp	r2, r3
 135 0114 0D00000A 		beq	.L27
 136 0118 011051E2 		subs	r1, r1, #1
 137 011c 0B00000A 		beq	.L27
 138 0120 EFFFFFEA 		b	.L16
 139              	.L12:
 140              	.LBE3:
 141              		.loc 1 94 0
 142 0124 0050C7E5 		strb	r5, [r7, #0]
  95:irqUart.c     ****         U1IER &= ~0x02;        //disable TX IRQ
 143              		.loc 1 95 0
 144 0128 043090E5 		ldr	r3, [r0, #4]
 145 012c 0230C3E3 		bic	r3, r3, #2
 146 0130 043080E5 		str	r3, [r0, #4]
 147 0134 050000EA 		b	.L27
 148              	.L4:
  96:irqUart.c     ****       }
  97:irqUart.c     ****       break;
  98:irqUart.c     **** 
  99:irqUart.c     ****       default:  //unknown
 100:irqUart.c     ****       dummy = U1LSR;
 149              		.loc 1 100 0
 150 0138 143090E5 		ldr	r3, [r0, #20]
 151 013c FF3003E2 		and	r3, r3, #255
 152 0140 0A30CDE5 		strb	r3, [sp, #10]
 153              	.LVL8:
 101:irqUart.c     ****       dummy = U1RBR;
 154              		.loc 1 101 0
 155 0144 003090E5 		ldr	r3, [r0, #0]
 156              	.L26:
 157 0148 FF3003E2 		and	r3, r3, #255
 158 014c 0A30CDE5 		strb	r3, [sp, #10]
 159              	.LVL9:
 160              	.L27:
 161              		.loc 1 47 0
 162 0150 083090E5 		ldr	r3, [r0, #8]
 163 0154 FF3003E2 		and	r3, r3, #255
 164 0158 0B30CDE5 		strb	r3, [sp, #11]
 165              	.LVL10:
 166 015c 0B30DDE5 		ldrb	r3, [sp, #11]	@ zero_extendqisi2
 167              	.LVL11:
 168 0160 010013E3 		tst	r3, #1
 169 0164 B1FFFF0A 		beq	.L3
 102:irqUart.c     ****       break;
 103:irqUart.c     ****     }
 104:irqUart.c     ****   }
 105:irqUart.c     **** 
 106:irqUart.c     ****   VICVectAddr = 0x00000000;    //dummy write to VIC to signal end of interrupt
 170              		.loc 1 106 0
 171 0168 0020A0E3 		mov	r2, #0
 172 016c 0030E0E3 		mvn	r3, #0
 173              	.LVL12:
 174 0170 CF2F03E5 		str	r2, [r3, #-4047]
 107:irqUart.c     **** }
ARM GAS  /cygdrive/d/DOCUME~1/rshilkr/LOCALS~1/Temp/ccB1gYMi.s 			page 6


 175              		.loc 1 107 0
 176 0174 0CD08DE2 		add	sp, sp, #12
 177 0178 F045BDE8 		ldmfd	sp!, {r4, r5, r6, r7, r8, sl, lr}
 178 017c 1EFF2FE1 		bx	lr
 179              	.L29:
 180              		.align	2
 181              	.L28:
 182 0180 000001E0 		.word	-536805376
 183 0184 00000000 		.word	uart1RxHead
 184 0188 00000000 		.word	uart1RxTail
 185 018c 00000000 		.word	uart1RxBuf
 186 0190 00000000 		.word	uart1TxHead
 187 0194 00000000 		.word	uart1TxTail
 188 0198 00000000 		.word	uart1TxRunning
 189 019c 00000000 		.word	uart1TxBuf
 190              	.LFE2:
 191              		.size	uart1ISR, .-uart1ISR
 192              		.align	2
 193              		.global	disIrq
 194              		.type	disIrq, %function
 195              	disIrq:
 196              	.LFB3:
 108:irqUart.c     **** 
 109:irqUart.c     **** /*****************************************************************************
 110:irqUart.c     ****  *
 111:irqUart.c     ****  * Description:
 112:irqUart.c     ****  *    Disable interrupts 
 113:irqUart.c     ****  *
 114:irqUart.c     ****  * Returns:
 115:irqUart.c     ****  *    The current status register, before disabling interrupts. 
 116:irqUart.c     ****  *
 117:irqUart.c     ****  ****************************************************************************/
 118:irqUart.c     **** tU32
 119:irqUart.c     **** disIrq(void)
 120:irqUart.c     **** {
 197              		.loc 1 120 0
 198              		@ Function supports interworking.
 199              		@ args = 0, pretend = 0, frame = 0
 200              		@ frame_needed = 0, uses_anonymous_args = 0
 201              		@ link register save eliminated.
 202              		@ lr needed for prologue
 121:irqUart.c     ****   tU32 returnReg;
 122:irqUart.c     **** 
 123:irqUart.c     ****   asm volatile ("disIrq1: mrs %0, cpsr  \n\t"
 124:irqUart.c     ****                 "orr r1, %0, #0xC0      \n\t"
 125:irqUart.c     ****                 "msr cpsr_c, r1         \n\t"
 126:irqUart.c     ****                 "mrs r1, cpsr           \n\t"
 127:irqUart.c     ****                 "and r1, r1, #0xC0      \n\t"
 128:irqUart.c     ****                 "cmp r1, #0xC0          \n\t"
 129:irqUart.c     ****                 "bne disIrq1            \n\t"
 130:irqUart.c     ****                 : "=r"(returnReg)
 131:irqUart.c     ****                 :
 132:irqUart.c     ****                 : "r1"
 133:irqUart.c     ****                );
 134:irqUart.c     ****   return returnReg;
 135:irqUart.c     **** }
 203              		.loc 1 135 0
ARM GAS  /cygdrive/d/DOCUME~1/rshilkr/LOCALS~1/Temp/ccB1gYMi.s 			page 7


 204 01a0 00000FE1 		disIrq1: mrs r0, cpsr  
 205 01a4 C01080E3 		orr r1, r0, #0xC0      
 206 01a8 01F021E1 		msr cpsr_c, r1         
 207 01ac 00100FE1 		mrs r1, cpsr           
 208 01b0 C01001E2 		and r1, r1, #0xC0      
 209 01b4 C00051E3 		cmp r1, #0xC0          
 210 01b8 F8FFFF1A 		bne disIrq1            
 211              		
 212 01bc 1EFF2FE1 		bx	lr
 213              	.LFE3:
 214              		.size	disIrq, .-disIrq
 215              		.align	2
 216              		.global	restoreIrq
 217              		.type	restoreIrq, %function
 218              	restoreIrq:
 219              	.LFB4:
 136:irqUart.c     **** 
 137:irqUart.c     **** /*****************************************************************************
 138:irqUart.c     ****  *
 139:irqUart.c     ****  * Description:
 140:irqUart.c     ****  *    Restore interrupt state. 
 141:irqUart.c     ****  *
 142:irqUart.c     ****  * Params:
 143:irqUart.c     ****  *    [in] restoreValue - The value of the new status register. 
 144:irqUart.c     ****  *
 145:irqUart.c     ****  ****************************************************************************/
 146:irqUart.c     **** void
 147:irqUart.c     **** restoreIrq(tU32 restoreValue)
 148:irqUart.c     **** {
 220              		.loc 1 148 0
 221              		@ Function supports interworking.
 222              		@ args = 0, pretend = 0, frame = 0
 223              		@ frame_needed = 0, uses_anonymous_args = 0
 224              		@ link register save eliminated.
 225              	.LVL13:
 226              		@ lr needed for prologue
 149:irqUart.c     ****   asm volatile ("msr cpsr_c, %0  \n\t"
 227              		.loc 1 149 0
 228 01c0 00F021E1 		msr cpsr_c, r0  
 229              		
 150:irqUart.c     ****                 :
 151:irqUart.c     ****                 : "r" (restoreValue)
 152:irqUart.c     ****                 : "r1"
 153:irqUart.c     ****                );
 154:irqUart.c     **** }
 230              		.loc 1 154 0
 231 01c4 1EFF2FE1 		bx	lr
 232              	.LFE4:
 233              		.size	restoreIrq, .-restoreIrq
 234              		.section	.debug_frame,"",%progbits
 235              	.Lframe0:
 236 0000 0C000000 		.4byte	.LECIE0-.LSCIE0
 237              	.LSCIE0:
 238 0004 FFFFFFFF 		.4byte	0xffffffff
 239 0008 01       		.byte	0x1
 240 0009 00       		.ascii	"\000"
 241 000a 01       		.uleb128 0x1
ARM GAS  /cygdrive/d/DOCUME~1/rshilkr/LOCALS~1/Temp/ccB1gYMi.s 			page 8


 242 000b 7C       		.sleb128 -4
 243 000c 0E       		.byte	0xe
 244 000d 0C       		.byte	0xc
 245 000e 0D       		.uleb128 0xd
 246 000f 00       		.uleb128 0x0
 247              		.align	2
 248              	.LECIE0:
 249              	.LSFDE0:
 250 0010 20000000 		.4byte	.LEFDE0-.LASFDE0
 251              	.LASFDE0:
 252 0014 00000000 		.4byte	.Lframe0
 253 0018 00000000 		.4byte	.LFB2
 254 001c A0010000 		.4byte	.LFE2-.LFB2
 255 0020 44       		.byte	0x4
 256              		.4byte	.LCFI0-.LFB2
 257 0021 0E       		.byte	0xe
 258 0022 1C       		.uleb128 0x1c
 259 0023 8E       		.byte	0x8e
 260 0024 01       		.uleb128 0x1
 261 0025 8A       		.byte	0x8a
 262 0026 02       		.uleb128 0x2
 263 0027 88       		.byte	0x88
 264 0028 03       		.uleb128 0x3
 265 0029 87       		.byte	0x87
 266 002a 04       		.uleb128 0x4
 267 002b 86       		.byte	0x86
 268 002c 05       		.uleb128 0x5
 269 002d 85       		.byte	0x85
 270 002e 06       		.uleb128 0x6
 271 002f 84       		.byte	0x84
 272 0030 07       		.uleb128 0x7
 273 0031 64       		.byte	0x4
 274              		.4byte	.LCFI1-.LCFI0
 275 0032 0E       		.byte	0xe
 276 0033 28       		.uleb128 0x28
 277              		.align	2
 278              	.LEFDE0:
 279              	.LSFDE2:
 280 0034 0C000000 		.4byte	.LEFDE2-.LASFDE2
 281              	.LASFDE2:
 282 0038 00000000 		.4byte	.Lframe0
 283 003c A0010000 		.4byte	.LFB3
 284 0040 20000000 		.4byte	.LFE3-.LFB3
 285              		.align	2
 286              	.LEFDE2:
 287              	.LSFDE4:
 288 0044 0C000000 		.4byte	.LEFDE4-.LASFDE4
 289              	.LASFDE4:
 290 0048 00000000 		.4byte	.Lframe0
 291 004c C0010000 		.4byte	.LFB4
 292 0050 08000000 		.4byte	.LFE4-.LFB4
 293              		.align	2
 294              	.LEFDE4:
 295              		.text
 296              	.Letext0:
 297              		.section	.debug_loc,"",%progbits
 298              	.Ldebug_loc0:
ARM GAS  /cygdrive/d/DOCUME~1/rshilkr/LOCALS~1/Temp/ccB1gYMi.s 			page 9


 299              	.LLST0:
 300 0000 00000000 		.4byte	.LFB2-.Ltext0
 301 0004 04000000 		.4byte	.LCFI0-.Ltext0
 302 0008 0100     		.2byte	0x1
 303 000a 5D       		.byte	0x5d
 304 000b 04000000 		.4byte	.LCFI0-.Ltext0
 305 000f 28000000 		.4byte	.LCFI1-.Ltext0
 306 0013 0200     		.2byte	0x2
 307 0015 7D       		.byte	0x7d
 308 0016 1C       		.sleb128 28
 309 0017 28000000 		.4byte	.LCFI1-.Ltext0
 310 001b A0010000 		.4byte	.LFE2-.Ltext0
 311 001f 0200     		.2byte	0x2
 312 0021 7D       		.byte	0x7d
 313 0022 28       		.sleb128 40
 314 0023 00000000 		.4byte	0x0
 315 0027 00000000 		.4byte	0x0
 316              	.LLST1:
 317 002b 30000000 		.4byte	.LVL0-.Ltext0
 318 002f 38000000 		.4byte	.LVL2-.Ltext0
 319 0033 0100     		.2byte	0x1
 320 0035 53       		.byte	0x53
 321 0036 D8000000 		.4byte	.LVL5-.Ltext0
 322 003a D8000000 		.4byte	.LVL5-.Ltext0
 323 003e 0200     		.2byte	0x2
 324 0040 91       		.byte	0x91
 325 0041 77       		.sleb128 -9
 326 0042 D8000000 		.4byte	.LVL5-.Ltext0
 327 0046 E8000000 		.4byte	.LVL6-.Ltext0
 328 004a 0100     		.2byte	0x1
 329 004c 53       		.byte	0x53
 330 004d 5C010000 		.4byte	.LVL10-.Ltext0
 331 0051 60010000 		.4byte	.LVL11-.Ltext0
 332 0055 0200     		.2byte	0x2
 333 0057 91       		.byte	0x91
 334 0058 77       		.sleb128 -9
 335 0059 60010000 		.4byte	.LVL11-.Ltext0
 336 005d 70010000 		.4byte	.LVL12-.Ltext0
 337 0061 0100     		.2byte	0x1
 338 0063 53       		.byte	0x53
 339 0064 00000000 		.4byte	0x0
 340 0068 00000000 		.4byte	0x0
 341              		.file 2 "irqUart.h"
 342              		.file 3 "../pre_emptive_os/api/general.h"
 343              		.section	.debug_info
 344 0000 84010000 		.4byte	0x184
 345 0004 0200     		.2byte	0x2
 346 0006 00000000 		.4byte	.Ldebug_abbrev0
 347 000a 04       		.byte	0x4
 348 000b 01       		.uleb128 0x1
 349 000c 46000000 		.4byte	.LASF20
 350 0010 01       		.byte	0x1
 351 0011 71000000 		.4byte	.LASF21
 352 0015 0D010000 		.4byte	.LASF22
 353 0019 00000000 		.4byte	.Ltext0
 354 001d C8010000 		.4byte	.Letext0
 355 0021 00000000 		.4byte	.Ldebug_line0
ARM GAS  /cygdrive/d/DOCUME~1/rshilkr/LOCALS~1/Temp/ccB1gYMi.s 			page 10


 356 0025 02       		.uleb128 0x2
 357 0026 74553800 		.ascii	"tU8\000"
 358 002a 03       		.byte	0x3
 359 002b 47       		.byte	0x47
 360 002c 30000000 		.4byte	0x30
 361 0030 03       		.uleb128 0x3
 362 0031 01       		.byte	0x1
 363 0032 08       		.byte	0x8
 364 0033 7B000000 		.4byte	.LASF0
 365 0037 03       		.uleb128 0x3
 366 0038 02       		.byte	0x2
 367 0039 07       		.byte	0x7
 368 003a CD000000 		.4byte	.LASF1
 369 003e 04       		.uleb128 0x4
 370 003f 62010000 		.4byte	.LASF2
 371 0043 03       		.byte	0x3
 372 0044 49       		.byte	0x49
 373 0045 49000000 		.4byte	0x49
 374 0049 03       		.uleb128 0x3
 375 004a 04       		.byte	0x4
 376 004b 07       		.byte	0x7
 377 004c 0B000000 		.4byte	.LASF3
 378 0050 03       		.uleb128 0x3
 379 0051 01       		.byte	0x1
 380 0052 06       		.byte	0x6
 381 0053 E0000000 		.4byte	.LASF4
 382 0057 03       		.uleb128 0x3
 383 0058 02       		.byte	0x2
 384 0059 05       		.byte	0x5
 385 005a 03010000 		.4byte	.LASF5
 386 005e 05       		.uleb128 0x5
 387 005f 04       		.byte	0x4
 388 0060 05       		.byte	0x5
 389 0061 696E7400 		.ascii	"int\000"
 390 0065 06       		.uleb128 0x6
 391 0066 01       		.byte	0x1
 392 0067 60000000 		.4byte	.LASF11
 393 006b 01       		.byte	0x1
 394 006c 28       		.byte	0x28
 395 006d 01       		.byte	0x1
 396 006e 00000000 		.4byte	.LFB2
 397 0072 A0010000 		.4byte	.LFE2
 398 0076 00000000 		.4byte	.LLST0
 399 007a CB000000 		.4byte	0xcb
 400 007e 07       		.uleb128 0x7
 401 007f EC000000 		.4byte	.LASF6
 402 0083 01       		.byte	0x1
 403 0084 29       		.byte	0x29
 404 0085 CB000000 		.4byte	0xcb
 405 0089 2B000000 		.4byte	.LLST1
 406 008d 08       		.uleb128 0x8
 407 008e 52000000 		.4byte	.LASF7
 408 0092 01       		.byte	0x1
 409 0093 2A       		.byte	0x2a
 410 0094 CB000000 		.4byte	0xcb
 411 0098 02       		.byte	0x2
 412 0099 91       		.byte	0x91
ARM GAS  /cygdrive/d/DOCUME~1/rshilkr/LOCALS~1/Temp/ccB1gYMi.s 			page 11


 413 009a 76       		.sleb128 -10
 414 009b 08       		.uleb128 0x8
 415 009c 69000000 		.4byte	.LASF8
 416 00a0 01       		.byte	0x1
 417 00a1 2B       		.byte	0x2b
 418 00a2 D0000000 		.4byte	0xd0
 419 00a6 02       		.byte	0x2
 420 00a7 91       		.byte	0x91
 421 00a8 70       		.sleb128 -16
 422 00a9 08       		.uleb128 0x8
 423 00aa 58000000 		.4byte	.LASF9
 424 00ae 01       		.byte	0x1
 425 00af 2C       		.byte	0x2c
 426 00b0 D0000000 		.4byte	0xd0
 427 00b4 02       		.byte	0x2
 428 00b5 91       		.byte	0x91
 429 00b6 6C       		.sleb128 -20
 430 00b7 09       		.uleb128 0x9
 431 00b8 00000000 		.4byte	.Ldebug_ranges0+0x0
 432 00bc 08       		.uleb128 0x8
 433 00bd 2E000000 		.4byte	.LASF10
 434 00c1 01       		.byte	0x1
 435 00c2 4A       		.byte	0x4a
 436 00c3 3E000000 		.4byte	0x3e
 437 00c7 01       		.byte	0x1
 438 00c8 51       		.byte	0x51
 439 00c9 00       		.byte	0x0
 440 00ca 00       		.byte	0x0
 441 00cb 0A       		.uleb128 0xa
 442 00cc 25000000 		.4byte	0x25
 443 00d0 0A       		.uleb128 0xa
 444 00d1 3E000000 		.4byte	0x3e
 445 00d5 0B       		.uleb128 0xb
 446 00d6 01       		.byte	0x1
 447 00d7 18000000 		.4byte	.LASF23
 448 00db 01       		.byte	0x1
 449 00dc 78       		.byte	0x78
 450 00dd 01       		.byte	0x1
 451 00de 3E000000 		.4byte	0x3e
 452 00e2 A0010000 		.4byte	.LFB3
 453 00e6 C0010000 		.4byte	.LFE3
 454 00ea 01       		.byte	0x1
 455 00eb 5D       		.byte	0x5d
 456 00ec FC000000 		.4byte	0xfc
 457 00f0 0C       		.uleb128 0xc
 458 00f1 C3000000 		.4byte	.LASF24
 459 00f5 01       		.byte	0x1
 460 00f6 79       		.byte	0x79
 461 00f7 3E000000 		.4byte	0x3e
 462 00fb 00       		.byte	0x0
 463 00fc 0D       		.uleb128 0xd
 464 00fd 01       		.byte	0x1
 465 00fe 00000000 		.4byte	.LASF12
 466 0102 01       		.byte	0x1
 467 0103 94       		.byte	0x94
 468 0104 01       		.byte	0x1
 469 0105 C0010000 		.4byte	.LFB4
ARM GAS  /cygdrive/d/DOCUME~1/rshilkr/LOCALS~1/Temp/ccB1gYMi.s 			page 12


 470 0109 C8010000 		.4byte	.LFE4
 471 010d 01       		.byte	0x1
 472 010e 5D       		.byte	0x5d
 473 010f 21010000 		.4byte	0x121
 474 0113 0E       		.uleb128 0xe
 475 0114 F6000000 		.4byte	.LASF25
 476 0118 01       		.byte	0x1
 477 0119 93       		.byte	0x93
 478 011a 3E000000 		.4byte	0x3e
 479 011e 01       		.byte	0x1
 480 011f 50       		.byte	0x50
 481 0120 00       		.byte	0x0
 482 0121 0F       		.uleb128 0xf
 483 0122 25000000 		.4byte	0x25
 484 0126 2C010000 		.4byte	0x12c
 485 012a 10       		.uleb128 0x10
 486 012b 00       		.byte	0x0
 487 012c 11       		.uleb128 0x11
 488 012d A0000000 		.4byte	.LASF13
 489 0131 02       		.byte	0x2
 490 0132 13       		.byte	0x13
 491 0133 21010000 		.4byte	0x121
 492 0137 01       		.byte	0x1
 493 0138 01       		.byte	0x1
 494 0139 11       		.uleb128 0x11
 495 013a 94000000 		.4byte	.LASF14
 496 013e 02       		.byte	0x2
 497 013f 14       		.byte	0x14
 498 0140 D0000000 		.4byte	0xd0
 499 0144 01       		.byte	0x1
 500 0145 01       		.byte	0x1
 501 0146 11       		.uleb128 0x11
 502 0147 AB000000 		.4byte	.LASF15
 503 014b 02       		.byte	0x2
 504 014c 15       		.byte	0x15
 505 014d D0000000 		.4byte	0xd0
 506 0151 01       		.byte	0x1
 507 0152 01       		.byte	0x1
 508 0153 11       		.uleb128 0x11
 509 0154 1F000000 		.4byte	.LASF16
 510 0158 02       		.byte	0x2
 511 0159 16       		.byte	0x16
 512 015a CB000000 		.4byte	0xcb
 513 015e 01       		.byte	0x1
 514 015f 01       		.byte	0x1
 515 0160 11       		.uleb128 0x11
 516 0161 89000000 		.4byte	.LASF17
 517 0165 02       		.byte	0x2
 518 0166 18       		.byte	0x18
 519 0167 21010000 		.4byte	0x121
 520 016b 01       		.byte	0x1
 521 016c 01       		.byte	0x1
 522 016d 11       		.uleb128 0x11
 523 016e 3A000000 		.4byte	.LASF18
 524 0172 02       		.byte	0x2
 525 0173 19       		.byte	0x19
 526 0174 D0000000 		.4byte	0xd0
ARM GAS  /cygdrive/d/DOCUME~1/rshilkr/LOCALS~1/Temp/ccB1gYMi.s 			page 13


 527 0178 01       		.byte	0x1
 528 0179 01       		.byte	0x1
 529 017a 11       		.uleb128 0x11
 530 017b B7000000 		.4byte	.LASF19
 531 017f 02       		.byte	0x2
 532 0180 1A       		.byte	0x1a
 533 0181 D0000000 		.4byte	0xd0
 534 0185 01       		.byte	0x1
 535 0186 01       		.byte	0x1
 536 0187 00       		.byte	0x0
 537              		.section	.debug_abbrev
 538 0000 01       		.uleb128 0x1
 539 0001 11       		.uleb128 0x11
 540 0002 01       		.byte	0x1
 541 0003 25       		.uleb128 0x25
 542 0004 0E       		.uleb128 0xe
 543 0005 13       		.uleb128 0x13
 544 0006 0B       		.uleb128 0xb
 545 0007 03       		.uleb128 0x3
 546 0008 0E       		.uleb128 0xe
 547 0009 1B       		.uleb128 0x1b
 548 000a 0E       		.uleb128 0xe
 549 000b 11       		.uleb128 0x11
 550 000c 01       		.uleb128 0x1
 551 000d 12       		.uleb128 0x12
 552 000e 01       		.uleb128 0x1
 553 000f 10       		.uleb128 0x10
 554 0010 06       		.uleb128 0x6
 555 0011 00       		.byte	0x0
 556 0012 00       		.byte	0x0
 557 0013 02       		.uleb128 0x2
 558 0014 16       		.uleb128 0x16
 559 0015 00       		.byte	0x0
 560 0016 03       		.uleb128 0x3
 561 0017 08       		.uleb128 0x8
 562 0018 3A       		.uleb128 0x3a
 563 0019 0B       		.uleb128 0xb
 564 001a 3B       		.uleb128 0x3b
 565 001b 0B       		.uleb128 0xb
 566 001c 49       		.uleb128 0x49
 567 001d 13       		.uleb128 0x13
 568 001e 00       		.byte	0x0
 569 001f 00       		.byte	0x0
 570 0020 03       		.uleb128 0x3
 571 0021 24       		.uleb128 0x24
 572 0022 00       		.byte	0x0
 573 0023 0B       		.uleb128 0xb
 574 0024 0B       		.uleb128 0xb
 575 0025 3E       		.uleb128 0x3e
 576 0026 0B       		.uleb128 0xb
 577 0027 03       		.uleb128 0x3
 578 0028 0E       		.uleb128 0xe
 579 0029 00       		.byte	0x0
 580 002a 00       		.byte	0x0
 581 002b 04       		.uleb128 0x4
 582 002c 16       		.uleb128 0x16
 583 002d 00       		.byte	0x0
ARM GAS  /cygdrive/d/DOCUME~1/rshilkr/LOCALS~1/Temp/ccB1gYMi.s 			page 14


 584 002e 03       		.uleb128 0x3
 585 002f 0E       		.uleb128 0xe
 586 0030 3A       		.uleb128 0x3a
 587 0031 0B       		.uleb128 0xb
 588 0032 3B       		.uleb128 0x3b
 589 0033 0B       		.uleb128 0xb
 590 0034 49       		.uleb128 0x49
 591 0035 13       		.uleb128 0x13
 592 0036 00       		.byte	0x0
 593 0037 00       		.byte	0x0
 594 0038 05       		.uleb128 0x5
 595 0039 24       		.uleb128 0x24
 596 003a 00       		.byte	0x0
 597 003b 0B       		.uleb128 0xb
 598 003c 0B       		.uleb128 0xb
 599 003d 3E       		.uleb128 0x3e
 600 003e 0B       		.uleb128 0xb
 601 003f 03       		.uleb128 0x3
 602 0040 08       		.uleb128 0x8
 603 0041 00       		.byte	0x0
 604 0042 00       		.byte	0x0
 605 0043 06       		.uleb128 0x6
 606 0044 2E       		.uleb128 0x2e
 607 0045 01       		.byte	0x1
 608 0046 3F       		.uleb128 0x3f
 609 0047 0C       		.uleb128 0xc
 610 0048 03       		.uleb128 0x3
 611 0049 0E       		.uleb128 0xe
 612 004a 3A       		.uleb128 0x3a
 613 004b 0B       		.uleb128 0xb
 614 004c 3B       		.uleb128 0x3b
 615 004d 0B       		.uleb128 0xb
 616 004e 27       		.uleb128 0x27
 617 004f 0C       		.uleb128 0xc
 618 0050 11       		.uleb128 0x11
 619 0051 01       		.uleb128 0x1
 620 0052 12       		.uleb128 0x12
 621 0053 01       		.uleb128 0x1
 622 0054 40       		.uleb128 0x40
 623 0055 06       		.uleb128 0x6
 624 0056 01       		.uleb128 0x1
 625 0057 13       		.uleb128 0x13
 626 0058 00       		.byte	0x0
 627 0059 00       		.byte	0x0
 628 005a 07       		.uleb128 0x7
 629 005b 34       		.uleb128 0x34
 630 005c 00       		.byte	0x0
 631 005d 03       		.uleb128 0x3
 632 005e 0E       		.uleb128 0xe
 633 005f 3A       		.uleb128 0x3a
 634 0060 0B       		.uleb128 0xb
 635 0061 3B       		.uleb128 0x3b
 636 0062 0B       		.uleb128 0xb
 637 0063 49       		.uleb128 0x49
 638 0064 13       		.uleb128 0x13
 639 0065 02       		.uleb128 0x2
 640 0066 06       		.uleb128 0x6
ARM GAS  /cygdrive/d/DOCUME~1/rshilkr/LOCALS~1/Temp/ccB1gYMi.s 			page 15


 641 0067 00       		.byte	0x0
 642 0068 00       		.byte	0x0
 643 0069 08       		.uleb128 0x8
 644 006a 34       		.uleb128 0x34
 645 006b 00       		.byte	0x0
 646 006c 03       		.uleb128 0x3
 647 006d 0E       		.uleb128 0xe
 648 006e 3A       		.uleb128 0x3a
 649 006f 0B       		.uleb128 0xb
 650 0070 3B       		.uleb128 0x3b
 651 0071 0B       		.uleb128 0xb
 652 0072 49       		.uleb128 0x49
 653 0073 13       		.uleb128 0x13
 654 0074 02       		.uleb128 0x2
 655 0075 0A       		.uleb128 0xa
 656 0076 00       		.byte	0x0
 657 0077 00       		.byte	0x0
 658 0078 09       		.uleb128 0x9
 659 0079 0B       		.uleb128 0xb
 660 007a 01       		.byte	0x1
 661 007b 55       		.uleb128 0x55
 662 007c 06       		.uleb128 0x6
 663 007d 00       		.byte	0x0
 664 007e 00       		.byte	0x0
 665 007f 0A       		.uleb128 0xa
 666 0080 35       		.uleb128 0x35
 667 0081 00       		.byte	0x0
 668 0082 49       		.uleb128 0x49
 669 0083 13       		.uleb128 0x13
 670 0084 00       		.byte	0x0
 671 0085 00       		.byte	0x0
 672 0086 0B       		.uleb128 0xb
 673 0087 2E       		.uleb128 0x2e
 674 0088 01       		.byte	0x1
 675 0089 3F       		.uleb128 0x3f
 676 008a 0C       		.uleb128 0xc
 677 008b 03       		.uleb128 0x3
 678 008c 0E       		.uleb128 0xe
 679 008d 3A       		.uleb128 0x3a
 680 008e 0B       		.uleb128 0xb
 681 008f 3B       		.uleb128 0x3b
 682 0090 0B       		.uleb128 0xb
 683 0091 27       		.uleb128 0x27
 684 0092 0C       		.uleb128 0xc
 685 0093 49       		.uleb128 0x49
 686 0094 13       		.uleb128 0x13
 687 0095 11       		.uleb128 0x11
 688 0096 01       		.uleb128 0x1
 689 0097 12       		.uleb128 0x12
 690 0098 01       		.uleb128 0x1
 691 0099 40       		.uleb128 0x40
 692 009a 0A       		.uleb128 0xa
 693 009b 01       		.uleb128 0x1
 694 009c 13       		.uleb128 0x13
 695 009d 00       		.byte	0x0
 696 009e 00       		.byte	0x0
 697 009f 0C       		.uleb128 0xc
ARM GAS  /cygdrive/d/DOCUME~1/rshilkr/LOCALS~1/Temp/ccB1gYMi.s 			page 16


 698 00a0 34       		.uleb128 0x34
 699 00a1 00       		.byte	0x0
 700 00a2 03       		.uleb128 0x3
 701 00a3 0E       		.uleb128 0xe
 702 00a4 3A       		.uleb128 0x3a
 703 00a5 0B       		.uleb128 0xb
 704 00a6 3B       		.uleb128 0x3b
 705 00a7 0B       		.uleb128 0xb
 706 00a8 49       		.uleb128 0x49
 707 00a9 13       		.uleb128 0x13
 708 00aa 00       		.byte	0x0
 709 00ab 00       		.byte	0x0
 710 00ac 0D       		.uleb128 0xd
 711 00ad 2E       		.uleb128 0x2e
 712 00ae 01       		.byte	0x1
 713 00af 3F       		.uleb128 0x3f
 714 00b0 0C       		.uleb128 0xc
 715 00b1 03       		.uleb128 0x3
 716 00b2 0E       		.uleb128 0xe
 717 00b3 3A       		.uleb128 0x3a
 718 00b4 0B       		.uleb128 0xb
 719 00b5 3B       		.uleb128 0x3b
 720 00b6 0B       		.uleb128 0xb
 721 00b7 27       		.uleb128 0x27
 722 00b8 0C       		.uleb128 0xc
 723 00b9 11       		.uleb128 0x11
 724 00ba 01       		.uleb128 0x1
 725 00bb 12       		.uleb128 0x12
 726 00bc 01       		.uleb128 0x1
 727 00bd 40       		.uleb128 0x40
 728 00be 0A       		.uleb128 0xa
 729 00bf 01       		.uleb128 0x1
 730 00c0 13       		.uleb128 0x13
 731 00c1 00       		.byte	0x0
 732 00c2 00       		.byte	0x0
 733 00c3 0E       		.uleb128 0xe
 734 00c4 05       		.uleb128 0x5
 735 00c5 00       		.byte	0x0
 736 00c6 03       		.uleb128 0x3
 737 00c7 0E       		.uleb128 0xe
 738 00c8 3A       		.uleb128 0x3a
 739 00c9 0B       		.uleb128 0xb
 740 00ca 3B       		.uleb128 0x3b
 741 00cb 0B       		.uleb128 0xb
 742 00cc 49       		.uleb128 0x49
 743 00cd 13       		.uleb128 0x13
 744 00ce 02       		.uleb128 0x2
 745 00cf 0A       		.uleb128 0xa
 746 00d0 00       		.byte	0x0
 747 00d1 00       		.byte	0x0
 748 00d2 0F       		.uleb128 0xf
 749 00d3 01       		.uleb128 0x1
 750 00d4 01       		.byte	0x1
 751 00d5 49       		.uleb128 0x49
 752 00d6 13       		.uleb128 0x13
 753 00d7 01       		.uleb128 0x1
 754 00d8 13       		.uleb128 0x13
ARM GAS  /cygdrive/d/DOCUME~1/rshilkr/LOCALS~1/Temp/ccB1gYMi.s 			page 17


 755 00d9 00       		.byte	0x0
 756 00da 00       		.byte	0x0
 757 00db 10       		.uleb128 0x10
 758 00dc 21       		.uleb128 0x21
 759 00dd 00       		.byte	0x0
 760 00de 00       		.byte	0x0
 761 00df 00       		.byte	0x0
 762 00e0 11       		.uleb128 0x11
 763 00e1 34       		.uleb128 0x34
 764 00e2 00       		.byte	0x0
 765 00e3 03       		.uleb128 0x3
 766 00e4 0E       		.uleb128 0xe
 767 00e5 3A       		.uleb128 0x3a
 768 00e6 0B       		.uleb128 0xb
 769 00e7 3B       		.uleb128 0x3b
 770 00e8 0B       		.uleb128 0xb
 771 00e9 49       		.uleb128 0x49
 772 00ea 13       		.uleb128 0x13
 773 00eb 3F       		.uleb128 0x3f
 774 00ec 0C       		.uleb128 0xc
 775 00ed 3C       		.uleb128 0x3c
 776 00ee 0C       		.uleb128 0xc
 777 00ef 00       		.byte	0x0
 778 00f0 00       		.byte	0x0
 779 00f1 00       		.byte	0x0
 780              		.section	.debug_pubnames,"",%progbits
 781 0000 35000000 		.4byte	0x35
 782 0004 0200     		.2byte	0x2
 783 0006 00000000 		.4byte	.Ldebug_info0
 784 000a 88010000 		.4byte	0x188
 785 000e 65000000 		.4byte	0x65
 786 0012 75617274 		.ascii	"uart1ISR\000"
 786      31495352 
 786      00
 787 001b D5000000 		.4byte	0xd5
 788 001f 64697349 		.ascii	"disIrq\000"
 788      727100
 789 0026 FC000000 		.4byte	0xfc
 790 002a 72657374 		.ascii	"restoreIrq\000"
 790      6F726549 
 790      727100
 791 0035 00000000 		.4byte	0x0
 792              		.section	.debug_aranges,"",%progbits
 793 0000 1C000000 		.4byte	0x1c
 794 0004 0200     		.2byte	0x2
 795 0006 00000000 		.4byte	.Ldebug_info0
 796 000a 04       		.byte	0x4
 797 000b 00       		.byte	0x0
 798 000c 0000     		.2byte	0x0
 799 000e 0000     		.2byte	0x0
 800 0010 00000000 		.4byte	.Ltext0
 801 0014 C8010000 		.4byte	.Letext0-.Ltext0
 802 0018 00000000 		.4byte	0x0
 803 001c 00000000 		.4byte	0x0
 804              		.section	.debug_ranges,"",%progbits
 805              	.Ldebug_ranges0:
 806 0000 20000000 		.4byte	.LBB2-.Ltext0
ARM GAS  /cygdrive/d/DOCUME~1/rshilkr/LOCALS~1/Temp/ccB1gYMi.s 			page 18


 807 0004 24000000 		.4byte	.LBE2-.Ltext0
 808 0008 D4000000 		.4byte	.LBB3-.Ltext0
 809 000c 24010000 		.4byte	.LBE3-.Ltext0
 810 0010 00000000 		.4byte	0x0
 811 0014 00000000 		.4byte	0x0
 812              		.section	.debug_str,"MS",%progbits,1
 813              	.LASF12:
 814 0000 72657374 		.ascii	"restoreIrq\000"
 814      6F726549 
 814      727100
 815              	.LASF3:
 816 000b 756E7369 		.ascii	"unsigned int\000"
 816      676E6564 
 816      20696E74 
 816      00
 817              	.LASF23:
 818 0018 64697349 		.ascii	"disIrq\000"
 818      727100
 819              	.LASF16:
 820 001f 75617274 		.ascii	"uart1TxRunning\000"
 820      31547852 
 820      756E6E69 
 820      6E6700
 821              	.LASF10:
 822 002e 62797465 		.ascii	"bytesToSend\000"
 822      73546F53 
 822      656E6400 
 823              	.LASF18:
 824 003a 75617274 		.ascii	"uart1RxHead\000"
 824      31527848 
 824      65616400 
 825              	.LASF20:
 826 0046 474E5520 		.ascii	"GNU C 4.2.2\000"
 826      4320342E 
 826      322E3200 
 827              	.LASF7:
 828 0052 64756D6D 		.ascii	"dummy\000"
 828      7900
 829              	.LASF9:
 830 0058 746D7054 		.ascii	"tmpTail\000"
 830      61696C00 
 831              	.LASF11:
 832 0060 75617274 		.ascii	"uart1ISR\000"
 832      31495352 
 832      00
 833              	.LASF8:
 834 0069 746D7048 		.ascii	"tmpHead\000"
 834      65616400 
 835              	.LASF21:
 836 0071 69727155 		.ascii	"irqUart.c\000"
 836      6172742E 
 836      6300
 837              	.LASF0:
 838 007b 756E7369 		.ascii	"unsigned char\000"
 838      676E6564 
 838      20636861 
 838      7200
ARM GAS  /cygdrive/d/DOCUME~1/rshilkr/LOCALS~1/Temp/ccB1gYMi.s 			page 19


 839              	.LASF17:
 840 0089 75617274 		.ascii	"uart1RxBuf\000"
 840      31527842 
 840      756600
 841              	.LASF14:
 842 0094 75617274 		.ascii	"uart1TxHead\000"
 842      31547848 
 842      65616400 
 843              	.LASF13:
 844 00a0 75617274 		.ascii	"uart1TxBuf\000"
 844      31547842 
 844      756600
 845              	.LASF15:
 846 00ab 75617274 		.ascii	"uart1TxTail\000"
 846      31547854 
 846      61696C00 
 847              	.LASF19:
 848 00b7 75617274 		.ascii	"uart1RxTail\000"
 848      31527854 
 848      61696C00 
 849              	.LASF24:
 850 00c3 72657475 		.ascii	"returnReg\000"
 850      726E5265 
 850      6700
 851              	.LASF1:
 852 00cd 73686F72 		.ascii	"short unsigned int\000"
 852      7420756E 
 852      7369676E 
 852      65642069 
 852      6E7400
 853              	.LASF4:
 854 00e0 7369676E 		.ascii	"signed char\000"
 854      65642063 
 854      68617200 
 855              	.LASF6:
 856 00ec 73746174 		.ascii	"statusReg\000"
 856      75735265 
 856      6700
 857              	.LASF25:
 858 00f6 72657374 		.ascii	"restoreValue\000"
 858      6F726556 
 858      616C7565 
 858      00
 859              	.LASF5:
 860 0103 73686F72 		.ascii	"short int\000"
 860      7420696E 
 860      7400
 861              	.LASF22:
 862 010d 2F637967 		.ascii	"/cygdrive/d/documents and settings/rshilkr/Desktop/"
 862      64726976 
 862      652F642F 
 862      646F6375 
 862      6D656E74 
 863 0140 656D6265 		.ascii	"embedded course/final project/irq\000"
 863      64646564 
 863      20636F75 
 863      7273652F 
ARM GAS  /cygdrive/d/DOCUME~1/rshilkr/LOCALS~1/Temp/ccB1gYMi.s 			page 20


 863      66696E61 
 864              	.LASF2:
 865 0162 74553332 		.ascii	"tU32\000"
 865      00
 866              		.ident	"GCC: (GNU) 4.2.2"
ARM GAS  /cygdrive/d/DOCUME~1/rshilkr/LOCALS~1/Temp/ccB1gYMi.s 			page 21


DEFINED SYMBOLS
                            *ABS*:00000000 irqUart.c
/cygdrive/d/DOCUME~1/rshilkr/LOCALS~1/Temp/ccB1gYMi.s:13     .text:00000000 uart1ISR
/cygdrive/d/DOCUME~1/rshilkr/LOCALS~1/Temp/ccB1gYMi.s:20     .text:00000000 $a
/cygdrive/d/DOCUME~1/rshilkr/LOCALS~1/Temp/ccB1gYMi.s:58     .text:00000048 $d
/cygdrive/d/DOCUME~1/rshilkr/LOCALS~1/Temp/ccB1gYMi.s:71     .text:00000074 $a
/cygdrive/d/DOCUME~1/rshilkr/LOCALS~1/Temp/ccB1gYMi.s:182    .text:00000180 $d
/cygdrive/d/DOCUME~1/rshilkr/LOCALS~1/Temp/ccB1gYMi.s:195    .text:000001a0 disIrq
/cygdrive/d/DOCUME~1/rshilkr/LOCALS~1/Temp/ccB1gYMi.s:204    .text:000001a0 disIrq1
/cygdrive/d/DOCUME~1/rshilkr/LOCALS~1/Temp/ccB1gYMi.s:204    .text:000001a0 $a
/cygdrive/d/DOCUME~1/rshilkr/LOCALS~1/Temp/ccB1gYMi.s:218    .text:000001c0 restoreIrq
/cygdrive/d/DOCUME~1/rshilkr/LOCALS~1/Temp/ccB1gYMi.s:236    .debug_frame:00000000 $d
/cygdrive/d/DOCUME~1/rshilkr/LOCALS~1/Temp/ccB1gYMi.s:300    .debug_loc:00000000 $d

UNDEFINED SYMBOLS
uart1RxHead
uart1RxTail
uart1RxBuf
uart1TxHead
uart1TxTail
uart1TxRunning
uart1TxBuf
