ARM GAS  /cygdrive/d/DOCUME~1/rshilkr/LOCALS~1/Temp/ccB1gYMi.s 			page 1


   1              		.file	"irqUart.c"
   8 0000 A0000000 		.text
   8      02005000 
   8      00000201 
   8      FB0E0D00 
   8      01010101 
   9              	.Ltext0:
  10              		.align	2
  11              		.global	uart1ISR
  12              		.type	uart1ISR, %function
  13              	uart1ISR:
  14              	.LFB2:
  15              		.file 1 "irqUart.c"
   1:irqUart.c     **** /******************************************************************************
   2:irqUart.c     ****  *
   3:irqUart.c     ****  * Copyright:
   4:irqUart.c     ****  *    (C) 2005 Embedded Artists AB
   5:irqUart.c     ****  *
   6:irqUart.c     ****  * File:
   7:irqUart.c     ****  *    irqUart.c
   8:irqUart.c     ****  *
   9:irqUart.c     ****  * Description:
  10:irqUart.c     ****  *    Sample irq code, that must be compiled in ARM code.
  11:irqUart.c     ****  *
  12:irqUart.c     ****  *****************************************************************************/
  13:irqUart.c     **** 
  14:irqUart.c     **** /******************************************************************************
  15:irqUart.c     ****  * Includes
  16:irqUart.c     ****  *****************************************************************************/
  17:irqUart.c     **** #include "../pre_emptive_os/api/general.h"
  18:irqUart.c     **** #include <lpc2xxx.h>
  19:irqUart.c     **** #include "irqUart.h"
  20:irqUart.c     **** #include "../uart.h"
  21:irqUart.c     **** 
  22:irqUart.c     **** /*****************************************************************************
  23:irqUart.c     ****  * Public function prototypes
  24:irqUart.c     ****  ****************************************************************************/
  25:irqUart.c     **** //void uart1ISR(void) __attribute__ ((interrupt));
  26:irqUart.c     **** 
  27:irqUart.c     **** 
  28:irqUart.c     **** /*****************************************************************************
  29:irqUart.c     ****  * Implementation of public functions
  30:irqUart.c     ****  ****************************************************************************/
  31:irqUart.c     **** 
  32:irqUart.c     **** /*****************************************************************************
  33:irqUart.c     ****  *
  34:irqUart.c     ****  * Description:
  35:irqUart.c     ****  *    Actual uart #1 ISR that is called whenever the uart generated an interrupt.
  36:irqUart.c     ****  *
  37:irqUart.c     ****  ****************************************************************************/
  38:irqUart.c     **** void
ARM GAS  /cygdrive/d/DOCUME~1/rshilkr/LOCALS~1/Temp/ccB1gYMi.s 			page 2


  39:irqUart.c     **** uart1ISR(void)
  40:irqUart.c     **** {
  16              		.loc 1 40 0
  17              		@ Function supports interworking.
  18              		@ args = 0, pretend = 0, frame = 12
  19              		@ frame_needed = 0, uses_anonymous_args = 0
  20 0000 F0452DE9 		stmfd	sp!, {r4, r5, r6, r7, r8, sl, lr}
  21              	.LCFI0:
  41:irqUart.c     ****   volatile tU8  statusReg;
  42:irqUart.c     ****   volatile tU8  dummy;
  43:irqUart.c     ****   volatile tU32 tmpHead;
  44:irqUart.c     ****   volatile tU32 tmpTail;
  45:irqUart.c     **** 
  46:irqUart.c     ****   //loop until not more interrupt sources
  47:irqUart.c     ****   while (((statusReg = U1IIR) & 0x01) == 0)
  22              		.loc 1 47 0
  23 0004 74019FE5 		ldr	r0, .L28
  48:irqUart.c     ****   {
  49:irqUart.c     ****     //identify and process the highest priority interrupt
  50:irqUart.c     ****     switch (statusReg & 0x0E)
  51:irqUart.c     ****     {
  52:irqUart.c     ****       case 0x06:  //Receive Line Status
  53:irqUart.c     ****       dummy = U1LSR;  //read LSR to clear bits
  54:irqUart.c     ****       break;
  55:irqUart.c     **** 
  56:irqUart.c     ****       case 0x0c:  //Character Timeout Indicator
  57:irqUart.c     ****       case 0x04:  //Receive Data Available
  58:irqUart.c     ****       do
  59:irqUart.c     ****       {
  60:irqUart.c     ****         tmpHead     = (uart1RxHead + 1) & RX_BUFFER_MASK;
  24              		.loc 1 60 0
  25 0008 74419FE5 		ldr	r4, .L28+4
  61:irqUart.c     ****         uart1RxHead = tmpHead;
  62:irqUart.c     **** 
  63:irqUart.c     ****         if(tmpHead == uart1RxTail)
  26              		.loc 1 63 0
  27 000c 74A19FE5 		ldr	sl, .L28+8
  64:irqUart.c     ****           tmpHead = U1RBR;              //dummy read to reset IRQ flag
  65:irqUart.c     ****         else
  66:irqUart.c     ****           uart1RxBuf[tmpHead] = U1RBR;  //will reset IRQ flag
  28              		.loc 1 66 0
  29 0010 74819FE5 		ldr	r8, .L28+12
  67:irqUart.c     ****       } while (U1LSR & 0x01);
  68:irqUart.c     ****       break;
  69:irqUart.c     **** 
  70:irqUart.c     ****       case 0x02:  //Transmit Holding Register Empty
  71:irqUart.c     ****       //check if all data is transmitted
  72:irqUart.c     ****       if (uart1TxHead != uart1TxTail)
  30              		.loc 1 72 0
  31 0014 74E19FE5 		ldr	lr, .L28+16
  32 0018 74C19FE5 		ldr	ip, .L28+20
  73:irqUart.c     ****       {
  74:irqUart.c     ****       	tU32 bytesToSend;
  75:irqUart.c     ****       	
  76:irqUart.c     ****       	if (statusReg & 0xc0)
  77:irqUart.c     ****       	  bytesToSend = 16;    //FIFO enabled
  78:irqUart.c     ****       	else
ARM GAS  /cygdrive/d/DOCUME~1/rshilkr/LOCALS~1/Temp/ccB1gYMi.s 			page 3


  79:irqUart.c     ****       	  bytesToSend = 1;     //no FIFO enabled
  80:irqUart.c     **** 
  81:irqUart.c     ****       	do
  82:irqUart.c     ****       	{
  83:irqUart.c     ****           //calculate buffer index
  84:irqUart.c     ****           tmpTail = (uart1TxTail + 1) & TX_BUFFER_MASK;
  85:irqUart.c     **** 
  86:irqUart.c     ****           uart1TxTail = tmpTail;
  87:irqUart.c     ****           U1THR = uart1TxBuf[tmpTail]; 
  88:irqUart.c     ****         } while((uart1TxHead != uart1TxTail) && --bytesToSend);
  89:irqUart.c     ****       }
  90:irqUart.c     **** 
  91:irqUart.c     ****       //all data has been transmitted
  92:irqUart.c     ****       else
  93:irqUart.c     ****       {
  94:irqUart.c     ****         uart1TxRunning = FALSE;
  33              		.loc 1 94 0
  34 001c 74719FE5 		ldr	r7, .L28+24
  35              	.LBB2:
  36              		.loc 1 87 0
  37 0020 74619FE5 		ldr	r6, .L28+28
  38              	.LBE2:
  39              		.loc 1 40 0
  40 0024 0CD04DE2 		sub	sp, sp, #12
  41              	.LCFI1:
  42              		.loc 1 94 0
  43 0028 0050A0E3 		mov	r5, #0
  44 002c 470000EA 		b	.L27
  45              	.LVL0:
  46              	.L3:
  47              		.loc 1 50 0
  48 0030 0B30DDE5 		ldrb	r3, [sp, #11]	@ zero_extendqisi2
  49              	.LVL1:
  50 0034 0E3003E2 		and	r3, r3, #14
  51              	.LVL2:
  52 0038 023043E2 		sub	r3, r3, #2
  53 003c 0A0053E3 		cmp	r3, #10
  54 0040 03F19F97 		ldrls	pc, [pc, r3, asl #2]
  55 0044 3B0000EA 		b	.L4
  56              		.p2align 2
  57              	.L8:
  58 0048 C4000000 		.word	.L5
  59 004c 38010000 		.word	.L4
  60 0050 7C000000 		.word	.L21
  61 0054 38010000 		.word	.L4
  62 0058 74000000 		.word	.L7
  63 005c 38010000 		.word	.L4
  64 0060 38010000 		.word	.L4
  65 0064 38010000 		.word	.L4
  66 0068 38010000 		.word	.L4
  67 006c 38010000 		.word	.L4
  68 0070 7C000000 		.word	.L21
  69              	.L7:
  70              		.loc 1 53 0
  71 0074 143090E5 		ldr	r3, [r0, #20]
  72 0078 320000EA 		b	.L26
  73              	.L21:
ARM GAS  /cygdrive/d/DOCUME~1/rshilkr/LOCALS~1/Temp/ccB1gYMi.s 			page 4


  74              		.loc 1 60 0
  75 007c 003094E5 		ldr	r3, [r4, #0]
  76 0080 013083E2 		add	r3, r3, #1
  77 0084 3F3003E2 		and	r3, r3, #63
  78 0088 04308DE5 		str	r3, [sp, #4]
  79              	.LVL3:
  80              		.loc 1 61 0
  81 008c 04309DE5 		ldr	r3, [sp, #4]
  82 0090 003084E5 		str	r3, [r4, #0]
  83              		.loc 1 63 0
  84 0094 04209DE5 		ldr	r2, [sp, #4]
  85 0098 00309AE5 		ldr	r3, [sl, #0]
  86 009c 030052E1 		cmp	r2, r3
  87              		.loc 1 66 0
  88 00a0 04209D15 		ldrne	r2, [sp, #4]
  89              		.loc 1 64 0
  90 00a4 00309005 		ldreq	r3, [r0, #0]
  91              		.loc 1 66 0
  92 00a8 00309015 		ldrne	r3, [r0, #0]
  93              		.loc 1 64 0
  94 00ac 04308D05 		streq	r3, [sp, #4]
  95              	.LVL4:
  96              		.loc 1 66 0
  97 00b0 0230C817 		strneb	r3, [r8, r2]
  98              		.loc 1 67 0
  99 00b4 143090E5 		ldr	r3, [r0, #20]
 100 00b8 010013E3 		tst	r3, #1
 101 00bc 2300000A 		beq	.L27
 102 00c0 EDFFFFEA 		b	.L21
 103              	.L5:
 104              		.loc 1 72 0
 105 00c4 00209EE5 		ldr	r2, [lr, #0]
 106 00c8 00309CE5 		ldr	r3, [ip, #0]
 107 00cc 030052E1 		cmp	r2, r3
 108 00d0 1300000A 		beq	.L12
 109              	.LBB3:
 110              		.loc 1 76 0
 111 00d4 0B30DDE5 		ldrb	r3, [sp, #11]	@ zero_extendqisi2
 112              	.LVL5:
 113 00d8 C00013E3 		tst	r3, #192
 114 00dc 0110A003 		moveq	r1, #1
 115 00e0 1010A013 		movne	r1, #16
 116              	.L16:
 117              		.loc 1 84 0
 118 00e4 00309CE5 		ldr	r3, [ip, #0]
 119              	.LVL6:
 120 00e8 013083E2 		add	r3, r3, #1
 121 00ec 3F3003E2 		and	r3, r3, #63
 122 00f0 00308DE5 		str	r3, [sp, #0]
 123              	.LVL7:
 124              		.loc 1 86 0
 125 00f4 00309DE5 		ldr	r3, [sp, #0]
 126 00f8 00308CE5 		str	r3, [ip, #0]
 127              		.loc 1 87 0
 128 00fc 00309DE5 		ldr	r3, [sp, #0]
 129 0100 0330D6E7 		ldrb	r3, [r6, r3]	@ zero_extendqisi2
 130 0104 003080E5 		str	r3, [r0, #0]
ARM GAS  /cygdrive/d/DOCUME~1/rshilkr/LOCALS~1/Temp/ccB1gYMi.s 			page 5


 131              		.loc 1 88 0
 132 0108 00209EE5 		ldr	r2, [lr, #0]
 133 010c 00309CE5 		ldr	r3, [ip, #0]
 134 0110 030052E1 		cmp	r2, r3
 135 0114 0D00000A 		beq	.L27
 136 0118 011051E2 		subs	r1, r1, #1
 137 011c 0B00000A 		beq	.L27
 138 0120 EFFFFFEA 		b	.L16
 139              	.L12:
 140              	.LBE3:
 141              		.loc 1 94 0
 142 0124 0050C7E5 		strb	r5, [r7, #0]
  95:irqUart.c     ****         U1IER &= ~0x02;        //disable TX IRQ
 143              		.loc 1 95 0
 144 0128 043090E5 		ldr	r3, [r0, #4]
 145 012c 0230C3E3 		bic	r3, r3, #2
 146 0130 043080E5 		str	r3, [r0, #4]
 147 0134 050000EA 		b	.L27
 148              	.L4:
  96:irqUart.c     ****       }
  97:irqUart.c     ****       break;
  98:irqUart.c     **** 
  99:irqUart.c     ****       default:  //unknown
 100:irqUart.c     ****       dummy = U1LSR;
 149              		.loc 1 100 0
 150 0138 143090E5 		ldr	r3, [r0, #20]
 151 013c FF3003E2 		and	r3, r3, #255
 152 0140 0A30CDE5 		strb	r3, [sp, #10]
 153              	.LVL8:
 101:irqUart.c     ****       dummy = U1RBR;
 154              		.loc 1 101 0
 155 0144 003090E5 		ldr	r3, [r0, #0]
 156              	.L26:
 157 0148 FF3003E2 		and	r3, r3, #255
 158 014c 0A30CDE5 		strb	r3, [sp, #10]
 159              	.LVL9:
 160              	.L27:
 161              		.loc 1 47 0
 162 0150 083090E5 		ldr	r3, [r0, #8]
 163 0154 FF3003E2 		and	r3, r3, #255
 164 0158 0B30CDE5 		strb	r3, [sp, #11]
 165              	.LVL10:
 166 015c 0B30DDE5 		ldrb	r3, [sp, #11]	@ zero_extendqisi2
 167              	.LVL11:
 168 0160 010013E3 		tst	r3, #1
 169 0164 B1FFFF0A 		beq	.L3
 102:irqUart.c     ****       break;
 103:irqUart.c     ****     }
 104:irqUart.c     ****   }
 105:irqUart.c     **** 
 106:irqUart.c     ****   VICVectAddr = 0x00000000;    //dummy write to VIC to signal end of interrupt
 170              		.loc 1 106 0
 171 0168 0020A0E3 		mov	r2, #0
 172 016c 0030E0E3 		mvn	r3, #0
 173              	.LVL12:
 174 0170 CF2F03E5 		str	r2, [r3, #-4047]
 107:irqUart.c     **** }
ARM GAS  /cygdrive/d/DOCUME~1/rshilkr/LOCALS~1/Temp/ccB1gYMi.s 			page 6


 175              		.loc 1 107 0
 176 0174 0CD08DE2 		add	sp, sp, #12
 177 0178 F045BDE8 		ldmfd	sp!, {r4, r5, r6, r7, r8, sl, lr}
 178 017c 1EFF2FE1 		bx	lr
 179              	.L29:
 180              		.align	2
 181              	.L28:
 182 0180 000001E0 		.word	-536805376
 183 0184 00000000 		.word	uart1RxHead
 184 0188 00000000 		.word	uart1RxTail
 185 018c 00000000 		.word	uart1RxBuf
 186 0190 00000000 		.word	uart1TxHead
 187 0194 00000000 		.word	uart1TxTail
 188 0198 00000000 		.word	uart1TxRunning
 189 019c 00000000 		.word	uart1TxBuf
 190              	.LFE2:
 191              		.size	uart1ISR, .-uart1ISR
 192              		.align	2
 193              		.global	disIrq
 194              		.type	disIrq, %function
 195              	disIrq:
 196              	.LFB3:
 108:irqUart.c     **** 
 109:irqUart.c     **** /*****************************************************************************
 110:irqUart.c     ****  *
 111:irqUart.c     ****  * Description:
 112:irqUart.c     ****  *    Disable interrupts 
 113:irqUart.c     ****  *
 114:irqUart.c     ****  * Returns:
 115:irqUart.c     ****  *    The current status register, before disabling interrupts. 
 116:irqUart.c     ****  *
 117:irqUart.c     ****  ****************************************************************************/
 118:irqUart.c     **** tU32
 119:irqUart.c     **** disIrq(void)
 120:irqUart.c     **** {
 197              		.loc 1 120 0
 198              		@ Function supports interworking.
 199              		@ args = 0, pretend = 0, frame = 0
 200              		@ frame_needed = 0, uses_anonymous_args = 0
 201              		@ link register save eliminated.
 202              		@ lr needed for prologue
 121:irqUart.c     ****   tU32 returnReg;
 122:irqUart.c     **** 
 123:irqUart.c     ****   asm volatile ("disIrq1: mrs %0, cpsr  \n\t"
 124:irqUart.c     ****                 "orr r1, %0, #0xC0      \n\t"
 125:irqUart.c     ****                 "msr cpsr_c, r1         \n\t"
 126:irqUart.c     ****                 "mrs r1, cpsr           \n\t"
 127:irqUart.c     ****                 "and r1, r1, #0xC0      \n\t"
 128:irqUart.c     ****                 "cmp r1, #0xC0          \n\t"
 129:irqUart.c     ****                 "bne disIrq1            \n\t"
 130:irqUart.c     ****                 : "=r"(returnReg)
 131:irqUart.c     ****                 :
 132:irqUart.c     ****                 : "r1"
 133:irqUart.c     ****                );
 134:irqUart.c     ****   return returnReg;
 135:irqUart.c     **** }
 203              		.loc 1 135 0
ARM GAS  /cygdrive/d/DOCUME~1/rshilkr/LOCALS~1/Temp/ccB1gYMi.s 			page 7


 204 01a0 00000FE1 		disIrq1: mrs r0, cpsr  
 205 01a4 C01080E3 		orr r1, r0, #0xC0      
 206 01a8 01F021E1 		msr cpsr_c, r1         
 207 01ac 00100FE1 		mrs r1, cpsr           
 208 01b0 C01001E2 		and r1, r1, #0xC0      
 209 01b4 C00051E3 		cmp r1, #0xC0          
 210 01b8 F8FFFF1A 		bne disIrq1            
 211              		
 212 01bc 1EFF2FE1 		bx	lr
 213              	.LFE3:
 214              		.size	disIrq, .-disIrq
 215              		.align	2
 216              		.global	restoreIrq
 217              		.type	restoreIrq, %function
 218              	restoreIrq:
 219              	.LFB4:
 136:irqUart.c     **** 
 137:irqUart.c     **** /*****************************************************************************
 138:irqUart.c     ****  *
 139:irqUart.c     ****  * Description:
 140:irqUart.c     ****  *    Restore interrupt state. 
 141:irqUart.c     ****  *
 142:irqUart.c     ****  * Params:
 143:irqUart.c     ****  *    [in] restoreValue - The value of the new status register. 
 144:irqUart.c     ****  *
 145:irqUart.c     ****  ****************************************************************************/
 146:irqUart.c     **** void
 147:irqUart.c     **** restoreIrq(tU32 restoreValue)
 148:irqUart.c     **** {
 220              		.loc 1 148 0
 221              		@ Function supports interworking.
 222              		@ args = 0, pretend = 0, frame = 0
 223              		@ frame_needed = 0, uses_anonymous_args = 0
 224              		@ link register save eliminated.
 225              	.LVL13:
 226              		@ lr needed for prologue
 149:irqUart.c     ****   asm volatile ("msr cpsr_c, %0  \n\t"
 227              		.loc 1 149 0
 228 01c0 00F021E1 		msr cpsr_c, r0  
 229              		
 150:irqUart.c     ****                 :
 151:irqUart.c     ****                 : "r" (restoreValue)
 152:irqUart.c     ****                 : "r1"
 153:irqUart.c     ****                );
 154:irqUart.c     **** }
 230              		.loc 1 154 0
 231 01c4 1EFF2FE1 		bx	lr
 232              	.LFE4:
 233              		.size	restoreIrq, .-restoreIrq
 234              		.section	.debug_frame,"",%progbits
 235              	.Lframe0:
 236 0000 0C000000 		.4byte	.LECIE0-.LSCIE0
 237              	.LSCIE0:
 238 0004 FFFFFFFF 		.4byte	0xffffffff
 239 0008 01       		.byte	0x1
 240 0009 00       		.ascii	"\000"
 241 000a 01       		.uleb128 0x1
ARM GAS  /cygdrive/d/DOCUME~1/rshilkr/LOCALS~1/Temp/ccB1gYMi.s 			page 8


 242 000b 7C       		.sleb128 -4
 243 000c 0E       		.byte	0xe
 244 000d 0C       		.byte	0xc
 245 000e 0D       		.uleb128 0xd
 246 000f 00       		.uleb128 0x0
 247              		.align	2
 248              	.LECIE0:
 249              	.LSFDE0:
 250 0010 20000000 		.4byte	.LEFDE0-.LASFDE0
 251              	.LASFDE0:
 252 0014 00000000 		.4byte	.Lframe0
 253 0018 00000000 		.4byte	.LFB2
 254 001c A0010000 		.4byte	.LFE2-.LFB2
 255 0020 44       		.byte	0x4
 256              		.4byte	.LCFI0-.LFB2
 257 0021 0E       		.byte	0xe
 258 0022 1C       		.uleb128 0x1c
 259 0023 8E       		.byte	0x8e
 260 0024 01       		.uleb128 0x1
 261 0025 8A       		.byte	0x8a
 262 0026 02       		.uleb128 0x2
 263 0027 88       		.byte	0x88
 264 0028 03       		.uleb128 0x3
 265 0029 87       		.byte	0x87
 266 002a 04       		.uleb128 0x4
 267 002b 86       		.byte	0x86
 268 002c 05       		.uleb128 0x5
 269 002d 85       		.byte	0x85
 270 002e 06       		.uleb128 0x6
 271 002f 84       		.byte	0x84
 272 0030 07       		.uleb128 0x7
 273 0031 64       		.byte	0x4
 274              		.4byte	.LCFI1-.LCFI0
 275 0032 0E       		.byte	0xe
 276 0033 28       		.uleb128 0x28
 277              		.align	2
 278              	.LEFDE0:
 279              	.LSFDE2:
 280 0034 0C000000 		.4byte	.LEFDE2-.LASFDE2
 281              	.LASFDE2:
 282 0038 00000000 		.4byte	.Lframe0
 283 003c A0010000 		.4byte	.LFB3
 284 0040 20000000 		.4byte	.LFE3-.LFB3
 285              		.align	2
 286              	.LEFDE2:
 287              	.LSFDE4:
 288 0044 0C000000 		.4byte	.LEFDE4-.LASFDE4
 289              	.LASFDE4:
 290 0048 00000000 		.4byte	.Lframe0
 291 004c C0010000 		.4byte	.LFB4
 292 0050 08000000 		.4byte	.LFE4-.LFB4
 293              		.align	2
 294              	.LEFDE4:
 295              		.text
 296              	.Letext0: